
ctarget:     file format elf64-x86-64


Disassembly of section .init:

0000000000400bb0 <_init>:
  400bb0:	48 83 ec 08          	sub    $0x8,%rsp
  400bb4:	48 8b 05 3d 34 20 00 	mov    0x20343d(%rip),%rax        # 603ff8 <__gmon_start__>
  400bbb:	48 85 c0             	test   %rax,%rax
  400bbe:	74 02                	je     400bc2 <_init+0x12>
  400bc0:	ff d0                	callq  *%rax
  400bc2:	48 83 c4 08          	add    $0x8,%rsp
  400bc6:	c3                   	retq   

Disassembly of section .plt:

0000000000400bd0 <.plt>:
  400bd0:	ff 35 32 34 20 00    	pushq  0x203432(%rip)        # 604008 <_GLOBAL_OFFSET_TABLE_+0x8>
  400bd6:	ff 25 34 34 20 00    	jmpq   *0x203434(%rip)        # 604010 <_GLOBAL_OFFSET_TABLE_+0x10>
  400bdc:	0f 1f 40 00          	nopl   0x0(%rax)

0000000000400be0 <strcasecmp@plt>:
  400be0:	ff 25 32 34 20 00    	jmpq   *0x203432(%rip)        # 604018 <strcasecmp@GLIBC_2.2.5>
  400be6:	68 00 00 00 00       	pushq  $0x0
  400beb:	e9 e0 ff ff ff       	jmpq   400bd0 <.plt>

0000000000400bf0 <__errno_location@plt>:
  400bf0:	ff 25 2a 34 20 00    	jmpq   *0x20342a(%rip)        # 604020 <__errno_location@GLIBC_2.2.5>
  400bf6:	68 01 00 00 00       	pushq  $0x1
  400bfb:	e9 d0 ff ff ff       	jmpq   400bd0 <.plt>

0000000000400c00 <srandom@plt>:
  400c00:	ff 25 22 34 20 00    	jmpq   *0x203422(%rip)        # 604028 <srandom@GLIBC_2.2.5>
  400c06:	68 02 00 00 00       	pushq  $0x2
  400c0b:	e9 c0 ff ff ff       	jmpq   400bd0 <.plt>

0000000000400c10 <strncmp@plt>:
  400c10:	ff 25 1a 34 20 00    	jmpq   *0x20341a(%rip)        # 604030 <strncmp@GLIBC_2.2.5>
  400c16:	68 03 00 00 00       	pushq  $0x3
  400c1b:	e9 b0 ff ff ff       	jmpq   400bd0 <.plt>

0000000000400c20 <strcpy@plt>:
  400c20:	ff 25 12 34 20 00    	jmpq   *0x203412(%rip)        # 604038 <strcpy@GLIBC_2.2.5>
  400c26:	68 04 00 00 00       	pushq  $0x4
  400c2b:	e9 a0 ff ff ff       	jmpq   400bd0 <.plt>

0000000000400c30 <puts@plt>:
  400c30:	ff 25 0a 34 20 00    	jmpq   *0x20340a(%rip)        # 604040 <puts@GLIBC_2.2.5>
  400c36:	68 05 00 00 00       	pushq  $0x5
  400c3b:	e9 90 ff ff ff       	jmpq   400bd0 <.plt>

0000000000400c40 <write@plt>:
  400c40:	ff 25 02 34 20 00    	jmpq   *0x203402(%rip)        # 604048 <write@GLIBC_2.2.5>
  400c46:	68 06 00 00 00       	pushq  $0x6
  400c4b:	e9 80 ff ff ff       	jmpq   400bd0 <.plt>

0000000000400c50 <mmap@plt>:
  400c50:	ff 25 fa 33 20 00    	jmpq   *0x2033fa(%rip)        # 604050 <mmap@GLIBC_2.2.5>
  400c56:	68 07 00 00 00       	pushq  $0x7
  400c5b:	e9 70 ff ff ff       	jmpq   400bd0 <.plt>

0000000000400c60 <printf@plt>:
  400c60:	ff 25 f2 33 20 00    	jmpq   *0x2033f2(%rip)        # 604058 <printf@GLIBC_2.2.5>
  400c66:	68 08 00 00 00       	pushq  $0x8
  400c6b:	e9 60 ff ff ff       	jmpq   400bd0 <.plt>

0000000000400c70 <memset@plt>:
  400c70:	ff 25 ea 33 20 00    	jmpq   *0x2033ea(%rip)        # 604060 <memset@GLIBC_2.2.5>
  400c76:	68 09 00 00 00       	pushq  $0x9
  400c7b:	e9 50 ff ff ff       	jmpq   400bd0 <.plt>

0000000000400c80 <alarm@plt>:
  400c80:	ff 25 e2 33 20 00    	jmpq   *0x2033e2(%rip)        # 604068 <alarm@GLIBC_2.2.5>
  400c86:	68 0a 00 00 00       	pushq  $0xa
  400c8b:	e9 40 ff ff ff       	jmpq   400bd0 <.plt>

0000000000400c90 <close@plt>:
  400c90:	ff 25 da 33 20 00    	jmpq   *0x2033da(%rip)        # 604070 <close@GLIBC_2.2.5>
  400c96:	68 0b 00 00 00       	pushq  $0xb
  400c9b:	e9 30 ff ff ff       	jmpq   400bd0 <.plt>

0000000000400ca0 <read@plt>:
  400ca0:	ff 25 d2 33 20 00    	jmpq   *0x2033d2(%rip)        # 604078 <read@GLIBC_2.2.5>
  400ca6:	68 0c 00 00 00       	pushq  $0xc
  400cab:	e9 20 ff ff ff       	jmpq   400bd0 <.plt>

0000000000400cb0 <signal@plt>:
  400cb0:	ff 25 ca 33 20 00    	jmpq   *0x2033ca(%rip)        # 604080 <signal@GLIBC_2.2.5>
  400cb6:	68 0d 00 00 00       	pushq  $0xd
  400cbb:	e9 10 ff ff ff       	jmpq   400bd0 <.plt>

0000000000400cc0 <gethostbyname@plt>:
  400cc0:	ff 25 c2 33 20 00    	jmpq   *0x2033c2(%rip)        # 604088 <gethostbyname@GLIBC_2.2.5>
  400cc6:	68 0e 00 00 00       	pushq  $0xe
  400ccb:	e9 00 ff ff ff       	jmpq   400bd0 <.plt>

0000000000400cd0 <fprintf@plt>:
  400cd0:	ff 25 ba 33 20 00    	jmpq   *0x2033ba(%rip)        # 604090 <fprintf@GLIBC_2.2.5>
  400cd6:	68 0f 00 00 00       	pushq  $0xf
  400cdb:	e9 f0 fe ff ff       	jmpq   400bd0 <.plt>

0000000000400ce0 <strtol@plt>:
  400ce0:	ff 25 b2 33 20 00    	jmpq   *0x2033b2(%rip)        # 604098 <strtol@GLIBC_2.2.5>
  400ce6:	68 10 00 00 00       	pushq  $0x10
  400ceb:	e9 e0 fe ff ff       	jmpq   400bd0 <.plt>

0000000000400cf0 <memcpy@plt>:
  400cf0:	ff 25 aa 33 20 00    	jmpq   *0x2033aa(%rip)        # 6040a0 <memcpy@GLIBC_2.14>
  400cf6:	68 11 00 00 00       	pushq  $0x11
  400cfb:	e9 d0 fe ff ff       	jmpq   400bd0 <.plt>

0000000000400d00 <time@plt>:
  400d00:	ff 25 a2 33 20 00    	jmpq   *0x2033a2(%rip)        # 6040a8 <time@GLIBC_2.2.5>
  400d06:	68 12 00 00 00       	pushq  $0x12
  400d0b:	e9 c0 fe ff ff       	jmpq   400bd0 <.plt>

0000000000400d10 <random@plt>:
  400d10:	ff 25 9a 33 20 00    	jmpq   *0x20339a(%rip)        # 6040b0 <random@GLIBC_2.2.5>
  400d16:	68 13 00 00 00       	pushq  $0x13
  400d1b:	e9 b0 fe ff ff       	jmpq   400bd0 <.plt>

0000000000400d20 <_IO_getc@plt>:
  400d20:	ff 25 92 33 20 00    	jmpq   *0x203392(%rip)        # 6040b8 <_IO_getc@GLIBC_2.2.5>
  400d26:	68 14 00 00 00       	pushq  $0x14
  400d2b:	e9 a0 fe ff ff       	jmpq   400bd0 <.plt>

0000000000400d30 <__isoc99_sscanf@plt>:
  400d30:	ff 25 8a 33 20 00    	jmpq   *0x20338a(%rip)        # 6040c0 <__isoc99_sscanf@GLIBC_2.7>
  400d36:	68 15 00 00 00       	pushq  $0x15
  400d3b:	e9 90 fe ff ff       	jmpq   400bd0 <.plt>

0000000000400d40 <munmap@plt>:
  400d40:	ff 25 82 33 20 00    	jmpq   *0x203382(%rip)        # 6040c8 <munmap@GLIBC_2.2.5>
  400d46:	68 16 00 00 00       	pushq  $0x16
  400d4b:	e9 80 fe ff ff       	jmpq   400bd0 <.plt>

0000000000400d50 <bcopy@plt>:
  400d50:	ff 25 7a 33 20 00    	jmpq   *0x20337a(%rip)        # 6040d0 <bcopy@GLIBC_2.2.5>
  400d56:	68 17 00 00 00       	pushq  $0x17
  400d5b:	e9 70 fe ff ff       	jmpq   400bd0 <.plt>

0000000000400d60 <fopen@plt>:
  400d60:	ff 25 72 33 20 00    	jmpq   *0x203372(%rip)        # 6040d8 <fopen@GLIBC_2.2.5>
  400d66:	68 18 00 00 00       	pushq  $0x18
  400d6b:	e9 60 fe ff ff       	jmpq   400bd0 <.plt>

0000000000400d70 <getopt@plt>:
  400d70:	ff 25 6a 33 20 00    	jmpq   *0x20336a(%rip)        # 6040e0 <getopt@GLIBC_2.2.5>
  400d76:	68 19 00 00 00       	pushq  $0x19
  400d7b:	e9 50 fe ff ff       	jmpq   400bd0 <.plt>

0000000000400d80 <strtoul@plt>:
  400d80:	ff 25 62 33 20 00    	jmpq   *0x203362(%rip)        # 6040e8 <strtoul@GLIBC_2.2.5>
  400d86:	68 1a 00 00 00       	pushq  $0x1a
  400d8b:	e9 40 fe ff ff       	jmpq   400bd0 <.plt>

0000000000400d90 <gethostname@plt>:
  400d90:	ff 25 5a 33 20 00    	jmpq   *0x20335a(%rip)        # 6040f0 <gethostname@GLIBC_2.2.5>
  400d96:	68 1b 00 00 00       	pushq  $0x1b
  400d9b:	e9 30 fe ff ff       	jmpq   400bd0 <.plt>

0000000000400da0 <sprintf@plt>:
  400da0:	ff 25 52 33 20 00    	jmpq   *0x203352(%rip)        # 6040f8 <sprintf@GLIBC_2.2.5>
  400da6:	68 1c 00 00 00       	pushq  $0x1c
  400dab:	e9 20 fe ff ff       	jmpq   400bd0 <.plt>

0000000000400db0 <exit@plt>:
  400db0:	ff 25 4a 33 20 00    	jmpq   *0x20334a(%rip)        # 604100 <exit@GLIBC_2.2.5>
  400db6:	68 1d 00 00 00       	pushq  $0x1d
  400dbb:	e9 10 fe ff ff       	jmpq   400bd0 <.plt>

0000000000400dc0 <connect@plt>:
  400dc0:	ff 25 42 33 20 00    	jmpq   *0x203342(%rip)        # 604108 <connect@GLIBC_2.2.5>
  400dc6:	68 1e 00 00 00       	pushq  $0x1e
  400dcb:	e9 00 fe ff ff       	jmpq   400bd0 <.plt>

0000000000400dd0 <socket@plt>:
  400dd0:	ff 25 3a 33 20 00    	jmpq   *0x20333a(%rip)        # 604110 <socket@GLIBC_2.2.5>
  400dd6:	68 1f 00 00 00       	pushq  $0x1f
  400ddb:	e9 f0 fd ff ff       	jmpq   400bd0 <.plt>

Disassembly of section .text:

0000000000400de0 <_start>:
  400de0:	31 ed                	xor    %ebp,%ebp
  400de2:	49 89 d1             	mov    %rdx,%r9
  400de5:	5e                   	pop    %rsi
  400de6:	48 89 e2             	mov    %rsp,%rdx
  400de9:	48 83 e4 f0          	and    $0xfffffffffffffff0,%rsp
  400ded:	50                   	push   %rax
  400dee:	54                   	push   %rsp
  400def:	49 c7 c0 00 2d 40 00 	mov    $0x402d00,%r8
  400df6:	48 c7 c1 90 2c 40 00 	mov    $0x402c90,%rcx
  400dfd:	48 c7 c7 8d 10 40 00 	mov    $0x40108d,%rdi
  400e04:	ff 15 e6 31 20 00    	callq  *0x2031e6(%rip)        # 603ff0 <__libc_start_main@GLIBC_2.2.5>
  400e0a:	f4                   	hlt    
  400e0b:	0f 1f 44 00 00       	nopl   0x0(%rax,%rax,1)

0000000000400e10 <deregister_tm_clones>:
  400e10:	b8 97 44 60 00       	mov    $0x604497,%eax
  400e15:	55                   	push   %rbp
  400e16:	48 2d 90 44 60 00    	sub    $0x604490,%rax
  400e1c:	48 83 f8 0e          	cmp    $0xe,%rax
  400e20:	48 89 e5             	mov    %rsp,%rbp
  400e23:	76 1b                	jbe    400e40 <deregister_tm_clones+0x30>
  400e25:	b8 00 00 00 00       	mov    $0x0,%eax
  400e2a:	48 85 c0             	test   %rax,%rax
  400e2d:	74 11                	je     400e40 <deregister_tm_clones+0x30>
  400e2f:	5d                   	pop    %rbp
  400e30:	bf 90 44 60 00       	mov    $0x604490,%edi
  400e35:	ff e0                	jmpq   *%rax
  400e37:	66 0f 1f 84 00 00 00 	nopw   0x0(%rax,%rax,1)
  400e3e:	00 00 
  400e40:	5d                   	pop    %rbp
  400e41:	c3                   	retq   
  400e42:	0f 1f 40 00          	nopl   0x0(%rax)
  400e46:	66 2e 0f 1f 84 00 00 	nopw   %cs:0x0(%rax,%rax,1)
  400e4d:	00 00 00 

0000000000400e50 <register_tm_clones>:
  400e50:	be 90 44 60 00       	mov    $0x604490,%esi
  400e55:	55                   	push   %rbp
  400e56:	48 81 ee 90 44 60 00 	sub    $0x604490,%rsi
  400e5d:	48 c1 fe 03          	sar    $0x3,%rsi
  400e61:	48 89 e5             	mov    %rsp,%rbp
  400e64:	48 89 f0             	mov    %rsi,%rax
  400e67:	48 c1 e8 3f          	shr    $0x3f,%rax
  400e6b:	48 01 c6             	add    %rax,%rsi
  400e6e:	48 d1 fe             	sar    %rsi
  400e71:	74 15                	je     400e88 <register_tm_clones+0x38>
  400e73:	b8 00 00 00 00       	mov    $0x0,%eax
  400e78:	48 85 c0             	test   %rax,%rax
  400e7b:	74 0b                	je     400e88 <register_tm_clones+0x38>
  400e7d:	5d                   	pop    %rbp
  400e7e:	bf 90 44 60 00       	mov    $0x604490,%edi
  400e83:	ff e0                	jmpq   *%rax
  400e85:	0f 1f 00             	nopl   (%rax)
  400e88:	5d                   	pop    %rbp
  400e89:	c3                   	retq   
  400e8a:	66 0f 1f 44 00 00    	nopw   0x0(%rax,%rax,1)

0000000000400e90 <__do_global_dtors_aux>:
  400e90:	80 3d 31 36 20 00 00 	cmpb   $0x0,0x203631(%rip)        # 6044c8 <completed.6972>
  400e97:	75 11                	jne    400eaa <__do_global_dtors_aux+0x1a>
  400e99:	55                   	push   %rbp
  400e9a:	48 89 e5             	mov    %rsp,%rbp
  400e9d:	e8 6e ff ff ff       	callq  400e10 <deregister_tm_clones>
  400ea2:	5d                   	pop    %rbp
  400ea3:	c6 05 1e 36 20 00 01 	movb   $0x1,0x20361e(%rip)        # 6044c8 <completed.6972>
  400eaa:	f3 c3                	repz retq 
  400eac:	0f 1f 40 00          	nopl   0x0(%rax)

0000000000400eb0 <frame_dummy>:
  400eb0:	bf 18 3e 60 00       	mov    $0x603e18,%edi
  400eb5:	48 83 3f 00          	cmpq   $0x0,(%rdi)
  400eb9:	75 05                	jne    400ec0 <frame_dummy+0x10>
  400ebb:	eb 93                	jmp    400e50 <register_tm_clones>
  400ebd:	0f 1f 00             	nopl   (%rax)
  400ec0:	b8 00 00 00 00       	mov    $0x0,%eax
  400ec5:	48 85 c0             	test   %rax,%rax
  400ec8:	74 f1                	je     400ebb <frame_dummy+0xb>
  400eca:	55                   	push   %rbp
  400ecb:	48 89 e5             	mov    %rsp,%rbp
  400ece:	ff d0                	callq  *%rax
  400ed0:	5d                   	pop    %rbp
  400ed1:	e9 7a ff ff ff       	jmpq   400e50 <register_tm_clones>

0000000000400ed6 <usage>:
  400ed6:	48 83 ec 08          	sub    $0x8,%rsp
  400eda:	48 89 fe             	mov    %rdi,%rsi
  400edd:	83 3d 24 36 20 00 00 	cmpl   $0x0,0x203624(%rip)        # 604508 <is_checker>
  400ee4:	74 4b                	je     400f31 <usage+0x5b>
  400ee6:	48 8d 3d 2b 1e 00 00 	lea    0x1e2b(%rip),%rdi        # 402d18 <_IO_stdin_used+0x8>
  400eed:	b8 00 00 00 00       	mov    $0x0,%eax
  400ef2:	e8 69 fd ff ff       	callq  400c60 <printf@plt>
  400ef7:	48 8d 3d 52 1e 00 00 	lea    0x1e52(%rip),%rdi        # 402d50 <_IO_stdin_used+0x40>
  400efe:	e8 2d fd ff ff       	callq  400c30 <puts@plt>
  400f03:	48 8d 3d 7e 1f 00 00 	lea    0x1f7e(%rip),%rdi        # 402e88 <_IO_stdin_used+0x178>
  400f0a:	e8 21 fd ff ff       	callq  400c30 <puts@plt>
  400f0f:	48 8d 3d 62 1e 00 00 	lea    0x1e62(%rip),%rdi        # 402d78 <_IO_stdin_used+0x68>
  400f16:	e8 15 fd ff ff       	callq  400c30 <puts@plt>
  400f1b:	48 8d 3d 80 1f 00 00 	lea    0x1f80(%rip),%rdi        # 402ea2 <_IO_stdin_used+0x192>
  400f22:	e8 09 fd ff ff       	callq  400c30 <puts@plt>
  400f27:	bf 00 00 00 00       	mov    $0x0,%edi
  400f2c:	e8 7f fe ff ff       	callq  400db0 <exit@plt>
  400f31:	48 8d 3d 86 1f 00 00 	lea    0x1f86(%rip),%rdi        # 402ebe <_IO_stdin_used+0x1ae>
  400f38:	b8 00 00 00 00       	mov    $0x0,%eax
  400f3d:	e8 1e fd ff ff       	callq  400c60 <printf@plt>
  400f42:	48 8d 3d 57 1e 00 00 	lea    0x1e57(%rip),%rdi        # 402da0 <_IO_stdin_used+0x90>
  400f49:	e8 e2 fc ff ff       	callq  400c30 <puts@plt>
  400f4e:	48 8d 3d 73 1e 00 00 	lea    0x1e73(%rip),%rdi        # 402dc8 <_IO_stdin_used+0xb8>
  400f55:	e8 d6 fc ff ff       	callq  400c30 <puts@plt>
  400f5a:	48 8d 3d 7b 1f 00 00 	lea    0x1f7b(%rip),%rdi        # 402edc <_IO_stdin_used+0x1cc>
  400f61:	e8 ca fc ff ff       	callq  400c30 <puts@plt>
  400f66:	eb bf                	jmp    400f27 <usage+0x51>

0000000000400f68 <initialize_target>:
  400f68:	55                   	push   %rbp
  400f69:	53                   	push   %rbx
  400f6a:	48 81 ec 08 21 00 00 	sub    $0x2108,%rsp
  400f71:	89 f5                	mov    %esi,%ebp
  400f73:	89 3d 7f 35 20 00    	mov    %edi,0x20357f(%rip)        # 6044f8 <check_level>
  400f79:	8b 3d b1 31 20 00    	mov    0x2031b1(%rip),%edi        # 604130 <target_id>
  400f7f:	e8 de 1c 00 00       	callq  402c62 <gencookie>
  400f84:	89 05 7a 35 20 00    	mov    %eax,0x20357a(%rip)        # 604504 <cookie>
  400f8a:	89 c7                	mov    %eax,%edi
  400f8c:	e8 d1 1c 00 00       	callq  402c62 <gencookie>
  400f91:	89 05 69 35 20 00    	mov    %eax,0x203569(%rip)        # 604500 <authkey>
  400f97:	8b 05 93 31 20 00    	mov    0x203193(%rip),%eax        # 604130 <target_id>
  400f9d:	8d 78 01             	lea    0x1(%rax),%edi
  400fa0:	e8 5b fc ff ff       	callq  400c00 <srandom@plt>
  400fa5:	e8 66 fd ff ff       	callq  400d10 <random@plt>
  400faa:	89 c7                	mov    %eax,%edi
  400fac:	e8 c3 02 00 00       	callq  401274 <scramble>
  400fb1:	89 c3                	mov    %eax,%ebx
  400fb3:	85 ed                	test   %ebp,%ebp
  400fb5:	75 3d                	jne    400ff4 <initialize_target+0x8c>
  400fb7:	b8 00 00 00 00       	mov    $0x0,%eax
  400fbc:	01 d8                	add    %ebx,%eax
  400fbe:	0f b7 c0             	movzwl %ax,%eax
  400fc1:	8d 04 c5 00 01 00 00 	lea    0x100(,%rax,8),%eax
  400fc8:	89 c0                	mov    %eax,%eax
  400fca:	48 89 05 af 34 20 00 	mov    %rax,0x2034af(%rip)        # 604480 <buf_offset>
  400fd1:	c6 05 50 41 20 00 63 	movb   $0x63,0x204150(%rip)        # 605128 <target_prefix>
  400fd8:	83 3d a9 34 20 00 00 	cmpl   $0x0,0x2034a9(%rip)        # 604488 <notify>
  400fdf:	74 09                	je     400fea <initialize_target+0x82>
  400fe1:	83 3d 20 35 20 00 00 	cmpl   $0x0,0x203520(%rip)        # 604508 <is_checker>
  400fe8:	74 22                	je     40100c <initialize_target+0xa4>
  400fea:	48 81 c4 08 21 00 00 	add    $0x2108,%rsp
  400ff1:	5b                   	pop    %rbx
  400ff2:	5d                   	pop    %rbp
  400ff3:	c3                   	retq   
  400ff4:	bf 00 00 00 00       	mov    $0x0,%edi
  400ff9:	e8 02 fd ff ff       	callq  400d00 <time@plt>
  400ffe:	89 c7                	mov    %eax,%edi
  401000:	e8 fb fb ff ff       	callq  400c00 <srandom@plt>
  401005:	e8 06 fd ff ff       	callq  400d10 <random@plt>
  40100a:	eb b0                	jmp    400fbc <initialize_target+0x54>
  40100c:	48 89 e7             	mov    %rsp,%rdi
  40100f:	be 00 01 00 00       	mov    $0x100,%esi
  401014:	e8 77 fd ff ff       	callq  400d90 <gethostname@plt>
  401019:	89 c3                	mov    %eax,%ebx
  40101b:	85 c0                	test   %eax,%eax
  40101d:	75 24                	jne    401043 <initialize_target+0xdb>
  40101f:	48 63 c3             	movslq %ebx,%rax
  401022:	48 8d 15 37 31 20 00 	lea    0x203137(%rip),%rdx        # 604160 <host_table>
  401029:	48 8b 3c c2          	mov    (%rdx,%rax,8),%rdi
  40102d:	48 85 ff             	test   %rdi,%rdi
  401030:	74 27                	je     401059 <initialize_target+0xf1>
  401032:	48 89 e6             	mov    %rsp,%rsi
  401035:	e8 a6 fb ff ff       	callq  400be0 <strcasecmp@plt>
  40103a:	85 c0                	test   %eax,%eax
  40103c:	74 1b                	je     401059 <initialize_target+0xf1>
  40103e:	83 c3 01             	add    $0x1,%ebx
  401041:	eb dc                	jmp    40101f <initialize_target+0xb7>
  401043:	48 8d 3d ae 1d 00 00 	lea    0x1dae(%rip),%rdi        # 402df8 <_IO_stdin_used+0xe8>
  40104a:	e8 e1 fb ff ff       	callq  400c30 <puts@plt>
  40104f:	bf 08 00 00 00       	mov    $0x8,%edi
  401054:	e8 57 fd ff ff       	callq  400db0 <exit@plt>
  401059:	48 8d bc 24 00 01 00 	lea    0x100(%rsp),%rdi
  401060:	00 
  401061:	e8 81 19 00 00       	callq  4029e7 <init_driver>
  401066:	85 c0                	test   %eax,%eax
  401068:	79 80                	jns    400fea <initialize_target+0x82>
  40106a:	48 8d b4 24 00 01 00 	lea    0x100(%rsp),%rsi
  401071:	00 
  401072:	48 8d 3d b7 1d 00 00 	lea    0x1db7(%rip),%rdi        # 402e30 <_IO_stdin_used+0x120>
  401079:	b8 00 00 00 00       	mov    $0x0,%eax
  40107e:	e8 dd fb ff ff       	callq  400c60 <printf@plt>
  401083:	bf 08 00 00 00       	mov    $0x8,%edi
  401088:	e8 23 fd ff ff       	callq  400db0 <exit@plt>

000000000040108d <main>:
  40108d:	41 56                	push   %r14
  40108f:	41 55                	push   %r13
  401091:	41 54                	push   %r12
  401093:	55                   	push   %rbp
  401094:	53                   	push   %rbx
  401095:	41 89 fc             	mov    %edi,%r12d
  401098:	48 89 f3             	mov    %rsi,%rbx
  40109b:	48 c7 c6 8d 1d 40 00 	mov    $0x401d8d,%rsi
  4010a2:	bf 0b 00 00 00       	mov    $0xb,%edi
  4010a7:	e8 04 fc ff ff       	callq  400cb0 <signal@plt>
  4010ac:	48 c7 c6 39 1d 40 00 	mov    $0x401d39,%rsi
  4010b3:	bf 07 00 00 00       	mov    $0x7,%edi
  4010b8:	e8 f3 fb ff ff       	callq  400cb0 <signal@plt>
  4010bd:	48 c7 c6 e1 1d 40 00 	mov    $0x401de1,%rsi
  4010c4:	bf 04 00 00 00       	mov    $0x4,%edi
  4010c9:	e8 e2 fb ff ff       	callq  400cb0 <signal@plt>
  4010ce:	83 3d 33 34 20 00 00 	cmpl   $0x0,0x203433(%rip)        # 604508 <is_checker>
  4010d5:	75 58                	jne    40112f <main+0xa2>
  4010d7:	48 8d 2d 17 1e 00 00 	lea    0x1e17(%rip),%rbp        # 402ef5 <_IO_stdin_used+0x1e5>
  4010de:	48 8b 05 bb 33 20 00 	mov    0x2033bb(%rip),%rax        # 6044a0 <stdin@@GLIBC_2.2.5>
  4010e5:	48 89 05 04 34 20 00 	mov    %rax,0x203404(%rip)        # 6044f0 <infile>
  4010ec:	41 bd 00 00 00 00    	mov    $0x0,%r13d
  4010f2:	41 be 00 00 00 00    	mov    $0x0,%r14d
  4010f8:	48 89 ea             	mov    %rbp,%rdx
  4010fb:	48 89 de             	mov    %rbx,%rsi
  4010fe:	44 89 e7             	mov    %r12d,%edi
  401101:	e8 6a fc ff ff       	callq  400d70 <getopt@plt>
  401106:	3c ff                	cmp    $0xff,%al
  401108:	0f 84 f8 00 00 00    	je     401206 <main+0x179>
  40110e:	0f be f0             	movsbl %al,%esi
  401111:	83 e8 61             	sub    $0x61,%eax
  401114:	3c 10                	cmp    $0x10,%al
  401116:	0f 87 d1 00 00 00    	ja     4011ed <main+0x160>
  40111c:	0f b6 c0             	movzbl %al,%eax
  40111f:	48 8d 15 1a 1e 00 00 	lea    0x1e1a(%rip),%rdx        # 402f40 <_IO_stdin_used+0x230>
  401126:	48 63 04 82          	movslq (%rdx,%rax,4),%rax
  40112a:	48 01 d0             	add    %rdx,%rax
  40112d:	ff e0                	jmpq   *%rax
  40112f:	48 c7 c6 35 1e 40 00 	mov    $0x401e35,%rsi
  401136:	bf 0e 00 00 00       	mov    $0xe,%edi
  40113b:	e8 70 fb ff ff       	callq  400cb0 <signal@plt>
  401140:	bf 05 00 00 00       	mov    $0x5,%edi
  401145:	e8 36 fb ff ff       	callq  400c80 <alarm@plt>
  40114a:	48 8d 2d a9 1d 00 00 	lea    0x1da9(%rip),%rbp        # 402efa <_IO_stdin_used+0x1ea>
  401151:	eb 8b                	jmp    4010de <main+0x51>
  401153:	48 8b 3b             	mov    (%rbx),%rdi
  401156:	e8 7b fd ff ff       	callq  400ed6 <usage>
  40115b:	48 8d 35 23 20 00 00 	lea    0x2023(%rip),%rsi        # 403185 <_IO_stdin_used+0x475>
  401162:	48 8b 3d 3f 33 20 00 	mov    0x20333f(%rip),%rdi        # 6044a8 <optarg@@GLIBC_2.2.5>
  401169:	e8 f2 fb ff ff       	callq  400d60 <fopen@plt>
  40116e:	48 89 05 7b 33 20 00 	mov    %rax,0x20337b(%rip)        # 6044f0 <infile>
  401175:	48 85 c0             	test   %rax,%rax
  401178:	0f 85 7a ff ff ff    	jne    4010f8 <main+0x6b>
  40117e:	48 8b 15 23 33 20 00 	mov    0x203323(%rip),%rdx        # 6044a8 <optarg@@GLIBC_2.2.5>
  401185:	48 8d 35 76 1d 00 00 	lea    0x1d76(%rip),%rsi        # 402f02 <_IO_stdin_used+0x1f2>
  40118c:	48 8b 3d 2d 33 20 00 	mov    0x20332d(%rip),%rdi        # 6044c0 <stderr@@GLIBC_2.2.5>
  401193:	e8 38 fb ff ff       	callq  400cd0 <fprintf@plt>
  401198:	b8 01 00 00 00       	mov    $0x1,%eax
  40119d:	e9 c9 00 00 00       	jmpq   40126b <main+0x1de>
  4011a2:	ba 10 00 00 00       	mov    $0x10,%edx
  4011a7:	be 00 00 00 00       	mov    $0x0,%esi
  4011ac:	48 8b 3d f5 32 20 00 	mov    0x2032f5(%rip),%rdi        # 6044a8 <optarg@@GLIBC_2.2.5>
  4011b3:	e8 c8 fb ff ff       	callq  400d80 <strtoul@plt>
  4011b8:	41 89 c6             	mov    %eax,%r14d
  4011bb:	e9 38 ff ff ff       	jmpq   4010f8 <main+0x6b>
  4011c0:	ba 0a 00 00 00       	mov    $0xa,%edx
  4011c5:	be 00 00 00 00       	mov    $0x0,%esi
  4011ca:	48 8b 3d d7 32 20 00 	mov    0x2032d7(%rip),%rdi        # 6044a8 <optarg@@GLIBC_2.2.5>
  4011d1:	e8 0a fb ff ff       	callq  400ce0 <strtol@plt>
  4011d6:	41 89 c5             	mov    %eax,%r13d
  4011d9:	e9 1a ff ff ff       	jmpq   4010f8 <main+0x6b>
  4011de:	c7 05 a0 32 20 00 00 	movl   $0x0,0x2032a0(%rip)        # 604488 <notify>
  4011e5:	00 00 00 
  4011e8:	e9 0b ff ff ff       	jmpq   4010f8 <main+0x6b>
  4011ed:	48 8d 3d 2b 1d 00 00 	lea    0x1d2b(%rip),%rdi        # 402f1f <_IO_stdin_used+0x20f>
  4011f4:	b8 00 00 00 00       	mov    $0x0,%eax
  4011f9:	e8 62 fa ff ff       	callq  400c60 <printf@plt>
  4011fe:	48 8b 3b             	mov    (%rbx),%rdi
  401201:	e8 d0 fc ff ff       	callq  400ed6 <usage>
  401206:	be 00 00 00 00       	mov    $0x0,%esi
  40120b:	44 89 ef             	mov    %r13d,%edi
  40120e:	e8 55 fd ff ff       	callq  400f68 <initialize_target>
  401213:	83 3d ee 32 20 00 00 	cmpl   $0x0,0x2032ee(%rip)        # 604508 <is_checker>
  40121a:	74 27                	je     401243 <main+0x1b6>
  40121c:	44 3b 35 dd 32 20 00 	cmp    0x2032dd(%rip),%r14d        # 604500 <authkey>
  401223:	74 1e                	je     401243 <main+0x1b6>
  401225:	44 89 f6             	mov    %r14d,%esi
  401228:	48 8d 3d 29 1c 00 00 	lea    0x1c29(%rip),%rdi        # 402e58 <_IO_stdin_used+0x148>
  40122f:	b8 00 00 00 00       	mov    $0x0,%eax
  401234:	e8 27 fa ff ff       	callq  400c60 <printf@plt>
  401239:	b8 00 00 00 00       	mov    $0x0,%eax
  40123e:	e8 c6 07 00 00       	callq  401a09 <check_fail>
  401243:	8b 35 bb 32 20 00    	mov    0x2032bb(%rip),%esi        # 604504 <cookie>
  401249:	48 8d 3d e2 1c 00 00 	lea    0x1ce2(%rip),%rdi        # 402f32 <_IO_stdin_used+0x222>
  401250:	b8 00 00 00 00       	mov    $0x0,%eax
  401255:	e8 06 fa ff ff       	callq  400c60 <printf@plt>
  40125a:	48 8b 3d 1f 32 20 00 	mov    0x20321f(%rip),%rdi        # 604480 <buf_offset>
  401261:	e8 aa 0c 00 00       	callq  401f10 <stable_launch>
  401266:	b8 00 00 00 00       	mov    $0x0,%eax
  40126b:	5b                   	pop    %rbx
  40126c:	5d                   	pop    %rbp
  40126d:	41 5c                	pop    %r12
  40126f:	41 5d                	pop    %r13
  401271:	41 5e                	pop    %r14
  401273:	c3                   	retq   

0000000000401274 <scramble>:
  401274:	b8 00 00 00 00       	mov    $0x0,%eax
  401279:	eb 11                	jmp    40128c <scramble+0x18>
  40127b:	69 d0 61 8b 00 00    	imul   $0x8b61,%eax,%edx
  401281:	01 fa                	add    %edi,%edx
  401283:	89 c1                	mov    %eax,%ecx
  401285:	89 54 8c d0          	mov    %edx,-0x30(%rsp,%rcx,4)
  401289:	83 c0 01             	add    $0x1,%eax
  40128c:	83 f8 09             	cmp    $0x9,%eax
  40128f:	76 ea                	jbe    40127b <scramble+0x7>
  401291:	8b 44 24 e4          	mov    -0x1c(%rsp),%eax
  401295:	69 c0 2d 74 00 00    	imul   $0x742d,%eax,%eax
  40129b:	89 44 24 e4          	mov    %eax,-0x1c(%rsp)
  40129f:	8b 44 24 d8          	mov    -0x28(%rsp),%eax
  4012a3:	69 c0 54 54 00 00    	imul   $0x5454,%eax,%eax
  4012a9:	89 44 24 d8          	mov    %eax,-0x28(%rsp)
  4012ad:	8b 44 24 d0          	mov    -0x30(%rsp),%eax
  4012b1:	69 c0 22 e4 00 00    	imul   $0xe422,%eax,%eax
  4012b7:	89 44 24 d0          	mov    %eax,-0x30(%rsp)
  4012bb:	8b 44 24 e0          	mov    -0x20(%rsp),%eax
  4012bf:	69 c0 1e 65 00 00    	imul   $0x651e,%eax,%eax
  4012c5:	89 44 24 e0          	mov    %eax,-0x20(%rsp)
  4012c9:	8b 44 24 d4          	mov    -0x2c(%rsp),%eax
  4012cd:	69 c0 a1 ec 00 00    	imul   $0xeca1,%eax,%eax
  4012d3:	89 44 24 d4          	mov    %eax,-0x2c(%rsp)
  4012d7:	8b 44 24 e0          	mov    -0x20(%rsp),%eax
  4012db:	69 c0 de b6 00 00    	imul   $0xb6de,%eax,%eax
  4012e1:	89 44 24 e0          	mov    %eax,-0x20(%rsp)
  4012e5:	8b 44 24 e4          	mov    -0x1c(%rsp),%eax
  4012e9:	69 c0 58 3f 00 00    	imul   $0x3f58,%eax,%eax
  4012ef:	89 44 24 e4          	mov    %eax,-0x1c(%rsp)
  4012f3:	8b 44 24 d4          	mov    -0x2c(%rsp),%eax
  4012f7:	69 c0 f2 bd 00 00    	imul   $0xbdf2,%eax,%eax
  4012fd:	89 44 24 d4          	mov    %eax,-0x2c(%rsp)
  401301:	8b 44 24 f4          	mov    -0xc(%rsp),%eax
  401305:	69 c0 52 9b 00 00    	imul   $0x9b52,%eax,%eax
  40130b:	89 44 24 f4          	mov    %eax,-0xc(%rsp)
  40130f:	8b 44 24 d8          	mov    -0x28(%rsp),%eax
  401313:	69 c0 ae ce 00 00    	imul   $0xceae,%eax,%eax
  401319:	89 44 24 d8          	mov    %eax,-0x28(%rsp)
  40131d:	8b 44 24 d0          	mov    -0x30(%rsp),%eax
  401321:	69 c0 d2 04 00 00    	imul   $0x4d2,%eax,%eax
  401327:	89 44 24 d0          	mov    %eax,-0x30(%rsp)
  40132b:	8b 44 24 d4          	mov    -0x2c(%rsp),%eax
  40132f:	69 c0 fa 94 00 00    	imul   $0x94fa,%eax,%eax
  401335:	89 44 24 d4          	mov    %eax,-0x2c(%rsp)
  401339:	8b 44 24 e0          	mov    -0x20(%rsp),%eax
  40133d:	69 c0 bc a8 00 00    	imul   $0xa8bc,%eax,%eax
  401343:	89 44 24 e0          	mov    %eax,-0x20(%rsp)
  401347:	8b 44 24 ec          	mov    -0x14(%rsp),%eax
  40134b:	69 c0 07 66 00 00    	imul   $0x6607,%eax,%eax
  401351:	89 44 24 ec          	mov    %eax,-0x14(%rsp)
  401355:	8b 44 24 e8          	mov    -0x18(%rsp),%eax
  401359:	69 c0 ca fe 00 00    	imul   $0xfeca,%eax,%eax
  40135f:	89 44 24 e8          	mov    %eax,-0x18(%rsp)
  401363:	8b 44 24 dc          	mov    -0x24(%rsp),%eax
  401367:	69 c0 90 c6 00 00    	imul   $0xc690,%eax,%eax
  40136d:	89 44 24 dc          	mov    %eax,-0x24(%rsp)
  401371:	8b 44 24 ec          	mov    -0x14(%rsp),%eax
  401375:	69 c0 67 9d 00 00    	imul   $0x9d67,%eax,%eax
  40137b:	89 44 24 ec          	mov    %eax,-0x14(%rsp)
  40137f:	8b 44 24 e4          	mov    -0x1c(%rsp),%eax
  401383:	69 c0 8d a9 00 00    	imul   $0xa98d,%eax,%eax
  401389:	89 44 24 e4          	mov    %eax,-0x1c(%rsp)
  40138d:	8b 44 24 ec          	mov    -0x14(%rsp),%eax
  401391:	69 c0 6f 57 00 00    	imul   $0x576f,%eax,%eax
  401397:	89 44 24 ec          	mov    %eax,-0x14(%rsp)
  40139b:	8b 44 24 d0          	mov    -0x30(%rsp),%eax
  40139f:	69 c0 9b 63 00 00    	imul   $0x639b,%eax,%eax
  4013a5:	89 44 24 d0          	mov    %eax,-0x30(%rsp)
  4013a9:	8b 44 24 f4          	mov    -0xc(%rsp),%eax
  4013ad:	69 c0 99 a6 00 00    	imul   $0xa699,%eax,%eax
  4013b3:	89 44 24 f4          	mov    %eax,-0xc(%rsp)
  4013b7:	8b 44 24 f4          	mov    -0xc(%rsp),%eax
  4013bb:	69 c0 6c 7f 00 00    	imul   $0x7f6c,%eax,%eax
  4013c1:	89 44 24 f4          	mov    %eax,-0xc(%rsp)
  4013c5:	8b 44 24 d0          	mov    -0x30(%rsp),%eax
  4013c9:	69 c0 78 51 00 00    	imul   $0x5178,%eax,%eax
  4013cf:	89 44 24 d0          	mov    %eax,-0x30(%rsp)
  4013d3:	8b 44 24 e0          	mov    -0x20(%rsp),%eax
  4013d7:	69 c0 7e 44 00 00    	imul   $0x447e,%eax,%eax
  4013dd:	89 44 24 e0          	mov    %eax,-0x20(%rsp)
  4013e1:	8b 44 24 e4          	mov    -0x1c(%rsp),%eax
  4013e5:	69 c0 4d c3 00 00    	imul   $0xc34d,%eax,%eax
  4013eb:	89 44 24 e4          	mov    %eax,-0x1c(%rsp)
  4013ef:	8b 44 24 e4          	mov    -0x1c(%rsp),%eax
  4013f3:	69 c0 c7 c5 00 00    	imul   $0xc5c7,%eax,%eax
  4013f9:	89 44 24 e4          	mov    %eax,-0x1c(%rsp)
  4013fd:	8b 44 24 d4          	mov    -0x2c(%rsp),%eax
  401401:	69 c0 df bf 00 00    	imul   $0xbfdf,%eax,%eax
  401407:	89 44 24 d4          	mov    %eax,-0x2c(%rsp)
  40140b:	8b 44 24 dc          	mov    -0x24(%rsp),%eax
  40140f:	69 c0 f1 d4 00 00    	imul   $0xd4f1,%eax,%eax
  401415:	89 44 24 dc          	mov    %eax,-0x24(%rsp)
  401419:	8b 44 24 d0          	mov    -0x30(%rsp),%eax
  40141d:	69 c0 f9 cc 00 00    	imul   $0xccf9,%eax,%eax
  401423:	89 44 24 d0          	mov    %eax,-0x30(%rsp)
  401427:	8b 44 24 dc          	mov    -0x24(%rsp),%eax
  40142b:	69 c0 ca a3 00 00    	imul   $0xa3ca,%eax,%eax
  401431:	89 44 24 dc          	mov    %eax,-0x24(%rsp)
  401435:	8b 44 24 ec          	mov    -0x14(%rsp),%eax
  401439:	69 c0 36 ea 00 00    	imul   $0xea36,%eax,%eax
  40143f:	89 44 24 ec          	mov    %eax,-0x14(%rsp)
  401443:	8b 44 24 dc          	mov    -0x24(%rsp),%eax
  401447:	69 c0 ba 3e 00 00    	imul   $0x3eba,%eax,%eax
  40144d:	89 44 24 dc          	mov    %eax,-0x24(%rsp)
  401451:	8b 44 24 e0          	mov    -0x20(%rsp),%eax
  401455:	69 c0 40 85 00 00    	imul   $0x8540,%eax,%eax
  40145b:	89 44 24 e0          	mov    %eax,-0x20(%rsp)
  40145f:	8b 44 24 e4          	mov    -0x1c(%rsp),%eax
  401463:	69 c0 26 09 00 00    	imul   $0x926,%eax,%eax
  401469:	89 44 24 e4          	mov    %eax,-0x1c(%rsp)
  40146d:	8b 44 24 d0          	mov    -0x30(%rsp),%eax
  401471:	69 c0 f3 f6 00 00    	imul   $0xf6f3,%eax,%eax
  401477:	89 44 24 d0          	mov    %eax,-0x30(%rsp)
  40147b:	8b 44 24 e8          	mov    -0x18(%rsp),%eax
  40147f:	69 c0 bf 20 00 00    	imul   $0x20bf,%eax,%eax
  401485:	89 44 24 e8          	mov    %eax,-0x18(%rsp)
  401489:	8b 44 24 d4          	mov    -0x2c(%rsp),%eax
  40148d:	69 c0 3b 87 00 00    	imul   $0x873b,%eax,%eax
  401493:	89 44 24 d4          	mov    %eax,-0x2c(%rsp)
  401497:	8b 44 24 f0          	mov    -0x10(%rsp),%eax
  40149b:	69 c0 7e 83 00 00    	imul   $0x837e,%eax,%eax
  4014a1:	89 44 24 f0          	mov    %eax,-0x10(%rsp)
  4014a5:	8b 44 24 d0          	mov    -0x30(%rsp),%eax
  4014a9:	69 c0 8a dd 00 00    	imul   $0xdd8a,%eax,%eax
  4014af:	89 44 24 d0          	mov    %eax,-0x30(%rsp)
  4014b3:	8b 44 24 ec          	mov    -0x14(%rsp),%eax
  4014b7:	69 c0 7e c5 00 00    	imul   $0xc57e,%eax,%eax
  4014bd:	89 44 24 ec          	mov    %eax,-0x14(%rsp)
  4014c1:	8b 44 24 d4          	mov    -0x2c(%rsp),%eax
  4014c5:	69 c0 29 db 00 00    	imul   $0xdb29,%eax,%eax
  4014cb:	89 44 24 d4          	mov    %eax,-0x2c(%rsp)
  4014cf:	8b 44 24 e0          	mov    -0x20(%rsp),%eax
  4014d3:	69 c0 f7 68 00 00    	imul   $0x68f7,%eax,%eax
  4014d9:	89 44 24 e0          	mov    %eax,-0x20(%rsp)
  4014dd:	8b 44 24 e0          	mov    -0x20(%rsp),%eax
  4014e1:	69 c0 06 e6 00 00    	imul   $0xe606,%eax,%eax
  4014e7:	89 44 24 e0          	mov    %eax,-0x20(%rsp)
  4014eb:	8b 44 24 d0          	mov    -0x30(%rsp),%eax
  4014ef:	69 c0 a4 03 00 00    	imul   $0x3a4,%eax,%eax
  4014f5:	89 44 24 d0          	mov    %eax,-0x30(%rsp)
  4014f9:	8b 44 24 d8          	mov    -0x28(%rsp),%eax
  4014fd:	69 c0 e0 78 00 00    	imul   $0x78e0,%eax,%eax
  401503:	89 44 24 d8          	mov    %eax,-0x28(%rsp)
  401507:	8b 44 24 e0          	mov    -0x20(%rsp),%eax
  40150b:	69 c0 c3 7e 00 00    	imul   $0x7ec3,%eax,%eax
  401511:	89 44 24 e0          	mov    %eax,-0x20(%rsp)
  401515:	8b 44 24 d8          	mov    -0x28(%rsp),%eax
  401519:	69 c0 c9 11 00 00    	imul   $0x11c9,%eax,%eax
  40151f:	89 44 24 d8          	mov    %eax,-0x28(%rsp)
  401523:	8b 44 24 ec          	mov    -0x14(%rsp),%eax
  401527:	69 c0 b3 ea 00 00    	imul   $0xeab3,%eax,%eax
  40152d:	89 44 24 ec          	mov    %eax,-0x14(%rsp)
  401531:	8b 44 24 e4          	mov    -0x1c(%rsp),%eax
  401535:	69 c0 c6 a5 00 00    	imul   $0xa5c6,%eax,%eax
  40153b:	89 44 24 e4          	mov    %eax,-0x1c(%rsp)
  40153f:	8b 44 24 dc          	mov    -0x24(%rsp),%eax
  401543:	69 c0 b8 73 00 00    	imul   $0x73b8,%eax,%eax
  401549:	89 44 24 dc          	mov    %eax,-0x24(%rsp)
  40154d:	8b 44 24 f4          	mov    -0xc(%rsp),%eax
  401551:	69 c0 9b 60 00 00    	imul   $0x609b,%eax,%eax
  401557:	89 44 24 f4          	mov    %eax,-0xc(%rsp)
  40155b:	8b 44 24 ec          	mov    -0x14(%rsp),%eax
  40155f:	69 c0 46 3a 00 00    	imul   $0x3a46,%eax,%eax
  401565:	89 44 24 ec          	mov    %eax,-0x14(%rsp)
  401569:	8b 44 24 e8          	mov    -0x18(%rsp),%eax
  40156d:	69 c0 a3 34 00 00    	imul   $0x34a3,%eax,%eax
  401573:	89 44 24 e8          	mov    %eax,-0x18(%rsp)
  401577:	8b 44 24 f4          	mov    -0xc(%rsp),%eax
  40157b:	69 c0 8b c0 00 00    	imul   $0xc08b,%eax,%eax
  401581:	89 44 24 f4          	mov    %eax,-0xc(%rsp)
  401585:	8b 44 24 f4          	mov    -0xc(%rsp),%eax
  401589:	69 c0 c0 85 00 00    	imul   $0x85c0,%eax,%eax
  40158f:	89 44 24 f4          	mov    %eax,-0xc(%rsp)
  401593:	8b 44 24 e0          	mov    -0x20(%rsp),%eax
  401597:	69 c0 04 b3 00 00    	imul   $0xb304,%eax,%eax
  40159d:	89 44 24 e0          	mov    %eax,-0x20(%rsp)
  4015a1:	8b 44 24 d4          	mov    -0x2c(%rsp),%eax
  4015a5:	69 c0 4f 11 00 00    	imul   $0x114f,%eax,%eax
  4015ab:	89 44 24 d4          	mov    %eax,-0x2c(%rsp)
  4015af:	8b 44 24 e4          	mov    -0x1c(%rsp),%eax
  4015b3:	69 c0 f2 fb 00 00    	imul   $0xfbf2,%eax,%eax
  4015b9:	89 44 24 e4          	mov    %eax,-0x1c(%rsp)
  4015bd:	8b 44 24 d0          	mov    -0x30(%rsp),%eax
  4015c1:	69 c0 e3 59 00 00    	imul   $0x59e3,%eax,%eax
  4015c7:	89 44 24 d0          	mov    %eax,-0x30(%rsp)
  4015cb:	8b 44 24 d4          	mov    -0x2c(%rsp),%eax
  4015cf:	69 c0 55 aa 00 00    	imul   $0xaa55,%eax,%eax
  4015d5:	89 44 24 d4          	mov    %eax,-0x2c(%rsp)
  4015d9:	8b 44 24 dc          	mov    -0x24(%rsp),%eax
  4015dd:	69 c0 05 a7 00 00    	imul   $0xa705,%eax,%eax
  4015e3:	89 44 24 dc          	mov    %eax,-0x24(%rsp)
  4015e7:	8b 44 24 e8          	mov    -0x18(%rsp),%eax
  4015eb:	69 c0 d9 35 00 00    	imul   $0x35d9,%eax,%eax
  4015f1:	89 44 24 e8          	mov    %eax,-0x18(%rsp)
  4015f5:	8b 44 24 d8          	mov    -0x28(%rsp),%eax
  4015f9:	69 c0 97 e6 00 00    	imul   $0xe697,%eax,%eax
  4015ff:	89 44 24 d8          	mov    %eax,-0x28(%rsp)
  401603:	8b 44 24 e4          	mov    -0x1c(%rsp),%eax
  401607:	69 c0 d8 4f 00 00    	imul   $0x4fd8,%eax,%eax
  40160d:	89 44 24 e4          	mov    %eax,-0x1c(%rsp)
  401611:	8b 44 24 f0          	mov    -0x10(%rsp),%eax
  401615:	69 c0 66 14 00 00    	imul   $0x1466,%eax,%eax
  40161b:	89 44 24 f0          	mov    %eax,-0x10(%rsp)
  40161f:	8b 44 24 ec          	mov    -0x14(%rsp),%eax
  401623:	69 c0 16 29 00 00    	imul   $0x2916,%eax,%eax
  401629:	89 44 24 ec          	mov    %eax,-0x14(%rsp)
  40162d:	8b 44 24 f0          	mov    -0x10(%rsp),%eax
  401631:	69 c0 08 58 00 00    	imul   $0x5808,%eax,%eax
  401637:	89 44 24 f0          	mov    %eax,-0x10(%rsp)
  40163b:	8b 44 24 dc          	mov    -0x24(%rsp),%eax
  40163f:	69 c0 d8 5c 00 00    	imul   $0x5cd8,%eax,%eax
  401645:	89 44 24 dc          	mov    %eax,-0x24(%rsp)
  401649:	8b 44 24 dc          	mov    -0x24(%rsp),%eax
  40164d:	69 c0 20 21 00 00    	imul   $0x2120,%eax,%eax
  401653:	89 44 24 dc          	mov    %eax,-0x24(%rsp)
  401657:	8b 44 24 e4          	mov    -0x1c(%rsp),%eax
  40165b:	69 c0 d8 9e 00 00    	imul   $0x9ed8,%eax,%eax
  401661:	89 44 24 e4          	mov    %eax,-0x1c(%rsp)
  401665:	8b 44 24 d0          	mov    -0x30(%rsp),%eax
  401669:	69 c0 6d a3 00 00    	imul   $0xa36d,%eax,%eax
  40166f:	89 44 24 d0          	mov    %eax,-0x30(%rsp)
  401673:	8b 44 24 e8          	mov    -0x18(%rsp),%eax
  401677:	69 c0 cb 07 00 00    	imul   $0x7cb,%eax,%eax
  40167d:	89 44 24 e8          	mov    %eax,-0x18(%rsp)
  401681:	8b 44 24 d4          	mov    -0x2c(%rsp),%eax
  401685:	69 c0 d8 6d 00 00    	imul   $0x6dd8,%eax,%eax
  40168b:	89 44 24 d4          	mov    %eax,-0x2c(%rsp)
  40168f:	8b 44 24 f4          	mov    -0xc(%rsp),%eax
  401693:	69 c0 11 ac 00 00    	imul   $0xac11,%eax,%eax
  401699:	89 44 24 f4          	mov    %eax,-0xc(%rsp)
  40169d:	8b 44 24 d4          	mov    -0x2c(%rsp),%eax
  4016a1:	69 c0 54 03 00 00    	imul   $0x354,%eax,%eax
  4016a7:	89 44 24 d4          	mov    %eax,-0x2c(%rsp)
  4016ab:	8b 44 24 f4          	mov    -0xc(%rsp),%eax
  4016af:	69 c0 7f 9a 00 00    	imul   $0x9a7f,%eax,%eax
  4016b5:	89 44 24 f4          	mov    %eax,-0xc(%rsp)
  4016b9:	8b 44 24 f0          	mov    -0x10(%rsp),%eax
  4016bd:	69 c0 80 7f 00 00    	imul   $0x7f80,%eax,%eax
  4016c3:	89 44 24 f0          	mov    %eax,-0x10(%rsp)
  4016c7:	8b 44 24 d4          	mov    -0x2c(%rsp),%eax
  4016cb:	69 c0 27 63 00 00    	imul   $0x6327,%eax,%eax
  4016d1:	89 44 24 d4          	mov    %eax,-0x2c(%rsp)
  4016d5:	8b 44 24 f4          	mov    -0xc(%rsp),%eax
  4016d9:	69 c0 e5 f0 00 00    	imul   $0xf0e5,%eax,%eax
  4016df:	89 44 24 f4          	mov    %eax,-0xc(%rsp)
  4016e3:	8b 44 24 e4          	mov    -0x1c(%rsp),%eax
  4016e7:	69 c0 74 f2 00 00    	imul   $0xf274,%eax,%eax
  4016ed:	89 44 24 e4          	mov    %eax,-0x1c(%rsp)
  4016f1:	8b 44 24 e8          	mov    -0x18(%rsp),%eax
  4016f5:	69 c0 90 76 00 00    	imul   $0x7690,%eax,%eax
  4016fb:	89 44 24 e8          	mov    %eax,-0x18(%rsp)
  4016ff:	8b 44 24 d0          	mov    -0x30(%rsp),%eax
  401703:	69 c0 4c 7a 00 00    	imul   $0x7a4c,%eax,%eax
  401709:	89 44 24 d0          	mov    %eax,-0x30(%rsp)
  40170d:	8b 44 24 d4          	mov    -0x2c(%rsp),%eax
  401711:	69 c0 e7 7e 00 00    	imul   $0x7ee7,%eax,%eax
  401717:	89 44 24 d4          	mov    %eax,-0x2c(%rsp)
  40171b:	8b 44 24 e4          	mov    -0x1c(%rsp),%eax
  40171f:	69 c0 43 5b 00 00    	imul   $0x5b43,%eax,%eax
  401725:	89 44 24 e4          	mov    %eax,-0x1c(%rsp)
  401729:	8b 44 24 f4          	mov    -0xc(%rsp),%eax
  40172d:	69 c0 88 f4 00 00    	imul   $0xf488,%eax,%eax
  401733:	89 44 24 f4          	mov    %eax,-0xc(%rsp)
  401737:	8b 44 24 d4          	mov    -0x2c(%rsp),%eax
  40173b:	69 c0 e8 46 00 00    	imul   $0x46e8,%eax,%eax
  401741:	89 44 24 d4          	mov    %eax,-0x2c(%rsp)
  401745:	8b 44 24 dc          	mov    -0x24(%rsp),%eax
  401749:	69 c0 f7 4b 00 00    	imul   $0x4bf7,%eax,%eax
  40174f:	89 44 24 dc          	mov    %eax,-0x24(%rsp)
  401753:	8b 44 24 e4          	mov    -0x1c(%rsp),%eax
  401757:	69 c0 b1 4c 00 00    	imul   $0x4cb1,%eax,%eax
  40175d:	89 44 24 e4          	mov    %eax,-0x1c(%rsp)
  401761:	8b 44 24 dc          	mov    -0x24(%rsp),%eax
  401765:	69 c0 71 52 00 00    	imul   $0x5271,%eax,%eax
  40176b:	89 44 24 dc          	mov    %eax,-0x24(%rsp)
  40176f:	8b 44 24 f4          	mov    -0xc(%rsp),%eax
  401773:	69 c0 8b 81 00 00    	imul   $0x818b,%eax,%eax
  401779:	89 44 24 f4          	mov    %eax,-0xc(%rsp)
  40177d:	8b 44 24 d0          	mov    -0x30(%rsp),%eax
  401781:	69 c0 2a 4f 00 00    	imul   $0x4f2a,%eax,%eax
  401787:	89 44 24 d0          	mov    %eax,-0x30(%rsp)
  40178b:	8b 44 24 d0          	mov    -0x30(%rsp),%eax
  40178f:	6b c0 1e             	imul   $0x1e,%eax,%eax
  401792:	89 44 24 d0          	mov    %eax,-0x30(%rsp)
  401796:	8b 44 24 e4          	mov    -0x1c(%rsp),%eax
  40179a:	69 c0 62 ec 00 00    	imul   $0xec62,%eax,%eax
  4017a0:	89 44 24 e4          	mov    %eax,-0x1c(%rsp)
  4017a4:	8b 44 24 dc          	mov    -0x24(%rsp),%eax
  4017a8:	69 c0 c1 34 00 00    	imul   $0x34c1,%eax,%eax
  4017ae:	89 44 24 dc          	mov    %eax,-0x24(%rsp)
  4017b2:	8b 44 24 f4          	mov    -0xc(%rsp),%eax
  4017b6:	69 c0 45 16 00 00    	imul   $0x1645,%eax,%eax
  4017bc:	89 44 24 f4          	mov    %eax,-0xc(%rsp)
  4017c0:	8b 44 24 e4          	mov    -0x1c(%rsp),%eax
  4017c4:	69 c0 92 e2 00 00    	imul   $0xe292,%eax,%eax
  4017ca:	89 44 24 e4          	mov    %eax,-0x1c(%rsp)
  4017ce:	ba 00 00 00 00       	mov    $0x0,%edx
  4017d3:	b8 00 00 00 00       	mov    $0x0,%eax
  4017d8:	eb 0b                	jmp    4017e5 <scramble+0x571>
  4017da:	89 d1                	mov    %edx,%ecx
  4017dc:	8b 4c 8c d0          	mov    -0x30(%rsp,%rcx,4),%ecx
  4017e0:	01 c8                	add    %ecx,%eax
  4017e2:	83 c2 01             	add    $0x1,%edx
  4017e5:	83 fa 09             	cmp    $0x9,%edx
  4017e8:	76 f0                	jbe    4017da <scramble+0x566>
  4017ea:	f3 c3                	repz retq 

00000000004017ec <getbuf>:
  4017ec:	48 83 ec 18          	sub    $0x18,%rsp
  4017f0:	48 89 e7             	mov    %rsp,%rdi
  4017f3:	e8 44 02 00 00       	callq  401a3c <Gets>
  4017f8:	b8 01 00 00 00       	mov    $0x1,%eax
  4017fd:	48 83 c4 18          	add    $0x18,%rsp
  401801:	c3                   	retq   

0000000000401802 <touch1>:
  401802:	48 83 ec 08          	sub    $0x8,%rsp
  401806:	c7 05 ec 2c 20 00 01 	movl   $0x1,0x202cec(%rip)        # 6044fc <vlevel>
  40180d:	00 00 00 
  401810:	48 8d 3d c7 17 00 00 	lea    0x17c7(%rip),%rdi        # 402fde <_IO_stdin_used+0x2ce>
  401817:	e8 14 f4 ff ff       	callq  400c30 <puts@plt>
  40181c:	bf 01 00 00 00       	mov    $0x1,%edi
  401821:	e8 2d 04 00 00       	callq  401c53 <validate>
  401826:	bf 00 00 00 00       	mov    $0x0,%edi
  40182b:	e8 80 f5 ff ff       	callq  400db0 <exit@plt>

0000000000401830 <touch2>:
  401830:	48 83 ec 08          	sub    $0x8,%rsp
  401834:	89 fe                	mov    %edi,%esi
  401836:	c7 05 bc 2c 20 00 02 	movl   $0x2,0x202cbc(%rip)        # 6044fc <vlevel>
  40183d:	00 00 00 
  401840:	39 3d be 2c 20 00    	cmp    %edi,0x202cbe(%rip)        # 604504 <cookie>
  401846:	74 25                	je     40186d <touch2+0x3d>
  401848:	48 8d 3d d9 17 00 00 	lea    0x17d9(%rip),%rdi        # 403028 <_IO_stdin_used+0x318>
  40184f:	b8 00 00 00 00       	mov    $0x0,%eax
  401854:	e8 07 f4 ff ff       	callq  400c60 <printf@plt>
  401859:	bf 02 00 00 00       	mov    $0x2,%edi
  40185e:	e8 ae 04 00 00       	callq  401d11 <fail>
  401863:	bf 00 00 00 00       	mov    $0x0,%edi
  401868:	e8 43 f5 ff ff       	callq  400db0 <exit@plt>
  40186d:	48 8d 3d 8c 17 00 00 	lea    0x178c(%rip),%rdi        # 403000 <_IO_stdin_used+0x2f0>
  401874:	b8 00 00 00 00       	mov    $0x0,%eax
  401879:	e8 e2 f3 ff ff       	callq  400c60 <printf@plt>
  40187e:	bf 02 00 00 00       	mov    $0x2,%edi
  401883:	e8 cb 03 00 00       	callq  401c53 <validate>
  401888:	eb d9                	jmp    401863 <touch2+0x33>

000000000040188a <hexmatch>:
  40188a:	41 54                	push   %r12
  40188c:	55                   	push   %rbp
  40188d:	53                   	push   %rbx
  40188e:	48 83 ec 70          	sub    $0x70,%rsp
  401892:	89 fd                	mov    %edi,%ebp
  401894:	48 89 f3             	mov    %rsi,%rbx
  401897:	e8 74 f4 ff ff       	callq  400d10 <random@plt>
  40189c:	48 89 c1             	mov    %rax,%rcx
  40189f:	48 ba 0b d7 a3 70 3d 	movabs $0xa3d70a3d70a3d70b,%rdx
  4018a6:	0a d7 a3 
  4018a9:	48 f7 ea             	imul   %rdx
  4018ac:	48 01 ca             	add    %rcx,%rdx
  4018af:	48 c1 fa 06          	sar    $0x6,%rdx
  4018b3:	48 89 c8             	mov    %rcx,%rax
  4018b6:	48 c1 f8 3f          	sar    $0x3f,%rax
  4018ba:	48 29 c2             	sub    %rax,%rdx
  4018bd:	48 8d 04 92          	lea    (%rdx,%rdx,4),%rax
  4018c1:	48 8d 14 80          	lea    (%rax,%rax,4),%rdx
  4018c5:	48 8d 04 95 00 00 00 	lea    0x0(,%rdx,4),%rax
  4018cc:	00 
  4018cd:	48 29 c1             	sub    %rax,%rcx
  4018d0:	4c 8d 24 0c          	lea    (%rsp,%rcx,1),%r12
  4018d4:	89 ea                	mov    %ebp,%edx
  4018d6:	48 8d 35 1e 17 00 00 	lea    0x171e(%rip),%rsi        # 402ffb <_IO_stdin_used+0x2eb>
  4018dd:	4c 89 e7             	mov    %r12,%rdi
  4018e0:	b8 00 00 00 00       	mov    $0x0,%eax
  4018e5:	e8 b6 f4 ff ff       	callq  400da0 <sprintf@plt>
  4018ea:	ba 09 00 00 00       	mov    $0x9,%edx
  4018ef:	4c 89 e6             	mov    %r12,%rsi
  4018f2:	48 89 df             	mov    %rbx,%rdi
  4018f5:	e8 16 f3 ff ff       	callq  400c10 <strncmp@plt>
  4018fa:	85 c0                	test   %eax,%eax
  4018fc:	0f 94 c0             	sete   %al
  4018ff:	0f b6 c0             	movzbl %al,%eax
  401902:	48 83 c4 70          	add    $0x70,%rsp
  401906:	5b                   	pop    %rbx
  401907:	5d                   	pop    %rbp
  401908:	41 5c                	pop    %r12
  40190a:	c3                   	retq   

000000000040190b <touch3>:
  40190b:	53                   	push   %rbx
  40190c:	48 89 fb             	mov    %rdi,%rbx
  40190f:	c7 05 e3 2b 20 00 03 	movl   $0x3,0x202be3(%rip)        # 6044fc <vlevel>
  401916:	00 00 00 
  401919:	48 89 fe             	mov    %rdi,%rsi
  40191c:	8b 3d e2 2b 20 00    	mov    0x202be2(%rip),%edi        # 604504 <cookie>
  401922:	e8 63 ff ff ff       	callq  40188a <hexmatch>
  401927:	85 c0                	test   %eax,%eax
  401929:	74 28                	je     401953 <touch3+0x48>
  40192b:	48 89 de             	mov    %rbx,%rsi
  40192e:	48 8d 3d 1b 17 00 00 	lea    0x171b(%rip),%rdi        # 403050 <_IO_stdin_used+0x340>
  401935:	b8 00 00 00 00       	mov    $0x0,%eax
  40193a:	e8 21 f3 ff ff       	callq  400c60 <printf@plt>
  40193f:	bf 03 00 00 00       	mov    $0x3,%edi
  401944:	e8 0a 03 00 00       	callq  401c53 <validate>
  401949:	bf 00 00 00 00       	mov    $0x0,%edi
  40194e:	e8 5d f4 ff ff       	callq  400db0 <exit@plt>
  401953:	48 89 de             	mov    %rbx,%rsi
  401956:	48 8d 3d 1b 17 00 00 	lea    0x171b(%rip),%rdi        # 403078 <_IO_stdin_used+0x368>
  40195d:	b8 00 00 00 00       	mov    $0x0,%eax
  401962:	e8 f9 f2 ff ff       	callq  400c60 <printf@plt>
  401967:	bf 03 00 00 00       	mov    $0x3,%edi
  40196c:	e8 a0 03 00 00       	callq  401d11 <fail>
  401971:	eb d6                	jmp    401949 <touch3+0x3e>

0000000000401973 <test>:
  401973:	48 83 ec 08          	sub    $0x8,%rsp
  401977:	b8 00 00 00 00       	mov    $0x0,%eax
  40197c:	e8 6b fe ff ff       	callq  4017ec <getbuf>
  401981:	89 c6                	mov    %eax,%esi
  401983:	48 8d 3d 16 17 00 00 	lea    0x1716(%rip),%rdi        # 4030a0 <_IO_stdin_used+0x390>
  40198a:	b8 00 00 00 00       	mov    $0x0,%eax
  40198f:	e8 cc f2 ff ff       	callq  400c60 <printf@plt>
  401994:	48 83 c4 08          	add    $0x8,%rsp
  401998:	c3                   	retq   

0000000000401999 <save_char>:
  401999:	8b 05 85 37 20 00    	mov    0x203785(%rip),%eax        # 605124 <gets_cnt>
  40199f:	3d ff 03 00 00       	cmp    $0x3ff,%eax
  4019a4:	7f 4a                	jg     4019f0 <save_char+0x57>
  4019a6:	8d 14 40             	lea    (%rax,%rax,2),%edx
  4019a9:	89 f9                	mov    %edi,%ecx
  4019ab:	c0 e9 04             	shr    $0x4,%cl
  4019ae:	4c 8d 05 0b 1a 00 00 	lea    0x1a0b(%rip),%r8        # 4033c0 <trans_char>
  4019b5:	83 e1 0f             	and    $0xf,%ecx
  4019b8:	45 0f b6 0c 08       	movzbl (%r8,%rcx,1),%r9d
  4019bd:	48 8d 0d 5c 2b 20 00 	lea    0x202b5c(%rip),%rcx        # 604520 <gets_buf>
  4019c4:	48 63 f2             	movslq %edx,%rsi
  4019c7:	44 88 0c 31          	mov    %r9b,(%rcx,%rsi,1)
  4019cb:	8d 72 01             	lea    0x1(%rdx),%esi
  4019ce:	83 e7 0f             	and    $0xf,%edi
  4019d1:	41 0f b6 3c 38       	movzbl (%r8,%rdi,1),%edi
  4019d6:	48 63 f6             	movslq %esi,%rsi
  4019d9:	40 88 3c 31          	mov    %dil,(%rcx,%rsi,1)
  4019dd:	83 c2 02             	add    $0x2,%edx
  4019e0:	48 63 d2             	movslq %edx,%rdx
  4019e3:	c6 04 11 20          	movb   $0x20,(%rcx,%rdx,1)
  4019e7:	83 c0 01             	add    $0x1,%eax
  4019ea:	89 05 34 37 20 00    	mov    %eax,0x203734(%rip)        # 605124 <gets_cnt>
  4019f0:	f3 c3                	repz retq 

00000000004019f2 <save_term>:
  4019f2:	8b 05 2c 37 20 00    	mov    0x20372c(%rip),%eax        # 605124 <gets_cnt>
  4019f8:	8d 04 40             	lea    (%rax,%rax,2),%eax
  4019fb:	48 98                	cltq   
  4019fd:	48 8d 15 1c 2b 20 00 	lea    0x202b1c(%rip),%rdx        # 604520 <gets_buf>
  401a04:	c6 04 02 00          	movb   $0x0,(%rdx,%rax,1)
  401a08:	c3                   	retq   

0000000000401a09 <check_fail>:
  401a09:	48 83 ec 08          	sub    $0x8,%rsp
  401a0d:	0f be 35 14 37 20 00 	movsbl 0x203714(%rip),%esi        # 605128 <target_prefix>
  401a14:	48 8d 0d 05 2b 20 00 	lea    0x202b05(%rip),%rcx        # 604520 <gets_buf>
  401a1b:	8b 15 d7 2a 20 00    	mov    0x202ad7(%rip),%edx        # 6044f8 <check_level>
  401a21:	48 8d 3d 9b 16 00 00 	lea    0x169b(%rip),%rdi        # 4030c3 <_IO_stdin_used+0x3b3>
  401a28:	b8 00 00 00 00       	mov    $0x0,%eax
  401a2d:	e8 2e f2 ff ff       	callq  400c60 <printf@plt>
  401a32:	bf 01 00 00 00       	mov    $0x1,%edi
  401a37:	e8 74 f3 ff ff       	callq  400db0 <exit@plt>

0000000000401a3c <Gets>:
  401a3c:	41 54                	push   %r12
  401a3e:	55                   	push   %rbp
  401a3f:	53                   	push   %rbx
  401a40:	49 89 fc             	mov    %rdi,%r12
  401a43:	c7 05 d7 36 20 00 00 	movl   $0x0,0x2036d7(%rip)        # 605124 <gets_cnt>
  401a4a:	00 00 00 
  401a4d:	48 89 fb             	mov    %rdi,%rbx
  401a50:	eb 11                	jmp    401a63 <Gets+0x27>
  401a52:	48 8d 6b 01          	lea    0x1(%rbx),%rbp
  401a56:	88 03                	mov    %al,(%rbx)
  401a58:	0f b6 f8             	movzbl %al,%edi
  401a5b:	e8 39 ff ff ff       	callq  401999 <save_char>
  401a60:	48 89 eb             	mov    %rbp,%rbx
  401a63:	48 8b 3d 86 2a 20 00 	mov    0x202a86(%rip),%rdi        # 6044f0 <infile>
  401a6a:	e8 b1 f2 ff ff       	callq  400d20 <_IO_getc@plt>
  401a6f:	83 f8 ff             	cmp    $0xffffffff,%eax
  401a72:	74 05                	je     401a79 <Gets+0x3d>
  401a74:	83 f8 0a             	cmp    $0xa,%eax
  401a77:	75 d9                	jne    401a52 <Gets+0x16>
  401a79:	c6 03 00             	movb   $0x0,(%rbx)
  401a7c:	b8 00 00 00 00       	mov    $0x0,%eax
  401a81:	e8 6c ff ff ff       	callq  4019f2 <save_term>
  401a86:	4c 89 e0             	mov    %r12,%rax
  401a89:	5b                   	pop    %rbx
  401a8a:	5d                   	pop    %rbp
  401a8b:	41 5c                	pop    %r12
  401a8d:	c3                   	retq   

0000000000401a8e <notify_server>:
  401a8e:	83 3d 73 2a 20 00 00 	cmpl   $0x0,0x202a73(%rip)        # 604508 <is_checker>
  401a95:	0f 85 de 00 00 00    	jne    401b79 <notify_server+0xeb>
  401a9b:	55                   	push   %rbp
  401a9c:	53                   	push   %rbx
  401a9d:	48 81 ec 08 40 00 00 	sub    $0x4008,%rsp
  401aa4:	89 fb                	mov    %edi,%ebx
  401aa6:	8b 05 78 36 20 00    	mov    0x203678(%rip),%eax        # 605124 <gets_cnt>
  401aac:	83 c0 64             	add    $0x64,%eax
  401aaf:	3d 00 20 00 00       	cmp    $0x2000,%eax
  401ab4:	0f 8f c1 00 00 00    	jg     401b7b <notify_server+0xed>
  401aba:	44 0f be 0d 66 36 20 	movsbl 0x203666(%rip),%r9d        # 605128 <target_prefix>
  401ac1:	00 
  401ac2:	83 3d bf 29 20 00 00 	cmpl   $0x0,0x2029bf(%rip)        # 604488 <notify>
  401ac9:	0f 84 c7 00 00 00    	je     401b96 <notify_server+0x108>
  401acf:	44 8b 05 2a 2a 20 00 	mov    0x202a2a(%rip),%r8d        # 604500 <authkey>
  401ad6:	85 db                	test   %ebx,%ebx
  401ad8:	0f 84 c3 00 00 00    	je     401ba1 <notify_server+0x113>
  401ade:	48 8d 2d f4 15 00 00 	lea    0x15f4(%rip),%rbp        # 4030d9 <_IO_stdin_used+0x3c9>
  401ae5:	48 8d bc 24 00 20 00 	lea    0x2000(%rsp),%rdi
  401aec:	00 
  401aed:	48 8d 05 2c 2a 20 00 	lea    0x202a2c(%rip),%rax        # 604520 <gets_buf>
  401af4:	50                   	push   %rax
  401af5:	56                   	push   %rsi
  401af6:	48 89 e9             	mov    %rbp,%rcx
  401af9:	8b 15 31 26 20 00    	mov    0x202631(%rip),%edx        # 604130 <target_id>
  401aff:	48 8d 35 dd 15 00 00 	lea    0x15dd(%rip),%rsi        # 4030e3 <_IO_stdin_used+0x3d3>
  401b06:	b8 00 00 00 00       	mov    $0x0,%eax
  401b0b:	e8 90 f2 ff ff       	callq  400da0 <sprintf@plt>
  401b10:	48 83 c4 10          	add    $0x10,%rsp
  401b14:	83 3d 6d 29 20 00 00 	cmpl   $0x0,0x20296d(%rip)        # 604488 <notify>
  401b1b:	0f 84 b8 00 00 00    	je     401bd9 <notify_server+0x14b>
  401b21:	85 db                	test   %ebx,%ebx
  401b23:	0f 84 a2 00 00 00    	je     401bcb <notify_server+0x13d>
  401b29:	48 8d 8c 24 00 20 00 	lea    0x2000(%rsp),%rcx
  401b30:	00 
  401b31:	49 89 e1             	mov    %rsp,%r9
  401b34:	41 b8 00 00 00 00    	mov    $0x0,%r8d
  401b3a:	48 8b 15 07 26 20 00 	mov    0x202607(%rip),%rdx        # 604148 <lab>
  401b41:	48 8b 35 08 26 20 00 	mov    0x202608(%rip),%rsi        # 604150 <course>
  401b48:	48 8b 3d f1 25 20 00 	mov    0x2025f1(%rip),%rdi        # 604140 <user_id>
  401b4f:	e8 6e 10 00 00       	callq  402bc2 <driver_post>
  401b54:	85 c0                	test   %eax,%eax
  401b56:	78 55                	js     401bad <notify_server+0x11f>
  401b58:	48 8d 3d c9 16 00 00 	lea    0x16c9(%rip),%rdi        # 403228 <_IO_stdin_used+0x518>
  401b5f:	e8 cc f0 ff ff       	callq  400c30 <puts@plt>
  401b64:	48 8d 3d a0 15 00 00 	lea    0x15a0(%rip),%rdi        # 40310b <_IO_stdin_used+0x3fb>
  401b6b:	e8 c0 f0 ff ff       	callq  400c30 <puts@plt>
  401b70:	48 81 c4 08 40 00 00 	add    $0x4008,%rsp
  401b77:	5b                   	pop    %rbx
  401b78:	5d                   	pop    %rbp
  401b79:	f3 c3                	repz retq 
  401b7b:	48 8d 3d 76 16 00 00 	lea    0x1676(%rip),%rdi        # 4031f8 <_IO_stdin_used+0x4e8>
  401b82:	b8 00 00 00 00       	mov    $0x0,%eax
  401b87:	e8 d4 f0 ff ff       	callq  400c60 <printf@plt>
  401b8c:	bf 01 00 00 00       	mov    $0x1,%edi
  401b91:	e8 1a f2 ff ff       	callq  400db0 <exit@plt>
  401b96:	41 b8 ff ff ff ff    	mov    $0xffffffff,%r8d
  401b9c:	e9 35 ff ff ff       	jmpq   401ad6 <notify_server+0x48>
  401ba1:	48 8d 2d 36 15 00 00 	lea    0x1536(%rip),%rbp        # 4030de <_IO_stdin_used+0x3ce>
  401ba8:	e9 38 ff ff ff       	jmpq   401ae5 <notify_server+0x57>
  401bad:	48 89 e6             	mov    %rsp,%rsi
  401bb0:	48 8d 3d 48 15 00 00 	lea    0x1548(%rip),%rdi        # 4030ff <_IO_stdin_used+0x3ef>
  401bb7:	b8 00 00 00 00       	mov    $0x0,%eax
  401bbc:	e8 9f f0 ff ff       	callq  400c60 <printf@plt>
  401bc1:	bf 01 00 00 00       	mov    $0x1,%edi
  401bc6:	e8 e5 f1 ff ff       	callq  400db0 <exit@plt>
  401bcb:	48 8d 3d 43 15 00 00 	lea    0x1543(%rip),%rdi        # 403115 <_IO_stdin_used+0x405>
  401bd2:	e8 59 f0 ff ff       	callq  400c30 <puts@plt>
  401bd7:	eb 97                	jmp    401b70 <notify_server+0xe2>
  401bd9:	48 89 ee             	mov    %rbp,%rsi
  401bdc:	48 8d 3d 7d 16 00 00 	lea    0x167d(%rip),%rdi        # 403260 <_IO_stdin_used+0x550>
  401be3:	b8 00 00 00 00       	mov    $0x0,%eax
  401be8:	e8 73 f0 ff ff       	callq  400c60 <printf@plt>
  401bed:	48 8b 35 4c 25 20 00 	mov    0x20254c(%rip),%rsi        # 604140 <user_id>
  401bf4:	48 8d 3d 21 15 00 00 	lea    0x1521(%rip),%rdi        # 40311c <_IO_stdin_used+0x40c>
  401bfb:	b8 00 00 00 00       	mov    $0x0,%eax
  401c00:	e8 5b f0 ff ff       	callq  400c60 <printf@plt>
  401c05:	48 8b 35 44 25 20 00 	mov    0x202544(%rip),%rsi        # 604150 <course>
  401c0c:	48 8d 3d 16 15 00 00 	lea    0x1516(%rip),%rdi        # 403129 <_IO_stdin_used+0x419>
  401c13:	b8 00 00 00 00       	mov    $0x0,%eax
  401c18:	e8 43 f0 ff ff       	callq  400c60 <printf@plt>
  401c1d:	48 8b 35 24 25 20 00 	mov    0x202524(%rip),%rsi        # 604148 <lab>
  401c24:	48 8d 3d 0a 15 00 00 	lea    0x150a(%rip),%rdi        # 403135 <_IO_stdin_used+0x425>
  401c2b:	b8 00 00 00 00       	mov    $0x0,%eax
  401c30:	e8 2b f0 ff ff       	callq  400c60 <printf@plt>
  401c35:	48 8d b4 24 00 20 00 	lea    0x2000(%rsp),%rsi
  401c3c:	00 
  401c3d:	48 8d 3d fa 14 00 00 	lea    0x14fa(%rip),%rdi        # 40313e <_IO_stdin_used+0x42e>
  401c44:	b8 00 00 00 00       	mov    $0x0,%eax
  401c49:	e8 12 f0 ff ff       	callq  400c60 <printf@plt>
  401c4e:	e9 1d ff ff ff       	jmpq   401b70 <notify_server+0xe2>

0000000000401c53 <validate>:
  401c53:	53                   	push   %rbx
  401c54:	89 fb                	mov    %edi,%ebx
  401c56:	83 3d ab 28 20 00 00 	cmpl   $0x0,0x2028ab(%rip)        # 604508 <is_checker>
  401c5d:	74 68                	je     401cc7 <validate+0x74>
  401c5f:	39 3d 97 28 20 00    	cmp    %edi,0x202897(%rip)        # 6044fc <vlevel>
  401c65:	75 2d                	jne    401c94 <validate+0x41>
  401c67:	8b 35 8b 28 20 00    	mov    0x20288b(%rip),%esi        # 6044f8 <check_level>
  401c6d:	39 f7                	cmp    %esi,%edi
  401c6f:	75 39                	jne    401caa <validate+0x57>
  401c71:	0f be 35 b0 34 20 00 	movsbl 0x2034b0(%rip),%esi        # 605128 <target_prefix>
  401c78:	48 8d 0d a1 28 20 00 	lea    0x2028a1(%rip),%rcx        # 604520 <gets_buf>
  401c7f:	89 fa                	mov    %edi,%edx
  401c81:	48 8d 3d e0 14 00 00 	lea    0x14e0(%rip),%rdi        # 403168 <_IO_stdin_used+0x458>
  401c88:	b8 00 00 00 00       	mov    $0x0,%eax
  401c8d:	e8 ce ef ff ff       	callq  400c60 <printf@plt>
  401c92:	5b                   	pop    %rbx
  401c93:	c3                   	retq   
  401c94:	48 8d 3d af 14 00 00 	lea    0x14af(%rip),%rdi        # 40314a <_IO_stdin_used+0x43a>
  401c9b:	e8 90 ef ff ff       	callq  400c30 <puts@plt>
  401ca0:	b8 00 00 00 00       	mov    $0x0,%eax
  401ca5:	e8 5f fd ff ff       	callq  401a09 <check_fail>
  401caa:	89 fa                	mov    %edi,%edx
  401cac:	48 8d 3d d5 15 00 00 	lea    0x15d5(%rip),%rdi        # 403288 <_IO_stdin_used+0x578>
  401cb3:	b8 00 00 00 00       	mov    $0x0,%eax
  401cb8:	e8 a3 ef ff ff       	callq  400c60 <printf@plt>
  401cbd:	b8 00 00 00 00       	mov    $0x0,%eax
  401cc2:	e8 42 fd ff ff       	callq  401a09 <check_fail>
  401cc7:	3b 3d 2f 28 20 00    	cmp    0x20282f(%rip),%edi        # 6044fc <vlevel>
  401ccd:	74 1a                	je     401ce9 <validate+0x96>
  401ccf:	48 8d 3d 74 14 00 00 	lea    0x1474(%rip),%rdi        # 40314a <_IO_stdin_used+0x43a>
  401cd6:	e8 55 ef ff ff       	callq  400c30 <puts@plt>
  401cdb:	89 de                	mov    %ebx,%esi
  401cdd:	bf 00 00 00 00       	mov    $0x0,%edi
  401ce2:	e8 a7 fd ff ff       	callq  401a8e <notify_server>
  401ce7:	eb a9                	jmp    401c92 <validate+0x3f>
  401ce9:	0f be 15 38 34 20 00 	movsbl 0x203438(%rip),%edx        # 605128 <target_prefix>
  401cf0:	89 fe                	mov    %edi,%esi
  401cf2:	48 8d 3d b7 15 00 00 	lea    0x15b7(%rip),%rdi        # 4032b0 <_IO_stdin_used+0x5a0>
  401cf9:	b8 00 00 00 00       	mov    $0x0,%eax
  401cfe:	e8 5d ef ff ff       	callq  400c60 <printf@plt>
  401d03:	89 de                	mov    %ebx,%esi
  401d05:	bf 01 00 00 00       	mov    $0x1,%edi
  401d0a:	e8 7f fd ff ff       	callq  401a8e <notify_server>
  401d0f:	eb 81                	jmp    401c92 <validate+0x3f>

0000000000401d11 <fail>:
  401d11:	48 83 ec 08          	sub    $0x8,%rsp
  401d15:	83 3d ec 27 20 00 00 	cmpl   $0x0,0x2027ec(%rip)        # 604508 <is_checker>
  401d1c:	75 11                	jne    401d2f <fail+0x1e>
  401d1e:	89 fe                	mov    %edi,%esi
  401d20:	bf 00 00 00 00       	mov    $0x0,%edi
  401d25:	e8 64 fd ff ff       	callq  401a8e <notify_server>
  401d2a:	48 83 c4 08          	add    $0x8,%rsp
  401d2e:	c3                   	retq   
  401d2f:	b8 00 00 00 00       	mov    $0x0,%eax
  401d34:	e8 d0 fc ff ff       	callq  401a09 <check_fail>

0000000000401d39 <bushandler>:
  401d39:	48 83 ec 08          	sub    $0x8,%rsp
  401d3d:	83 3d c4 27 20 00 00 	cmpl   $0x0,0x2027c4(%rip)        # 604508 <is_checker>
  401d44:	74 16                	je     401d5c <bushandler+0x23>
  401d46:	48 8d 3d 30 14 00 00 	lea    0x1430(%rip),%rdi        # 40317d <_IO_stdin_used+0x46d>
  401d4d:	e8 de ee ff ff       	callq  400c30 <puts@plt>
  401d52:	b8 00 00 00 00       	mov    $0x0,%eax
  401d57:	e8 ad fc ff ff       	callq  401a09 <check_fail>
  401d5c:	48 8d 3d 85 15 00 00 	lea    0x1585(%rip),%rdi        # 4032e8 <_IO_stdin_used+0x5d8>
  401d63:	e8 c8 ee ff ff       	callq  400c30 <puts@plt>
  401d68:	48 8d 3d 18 14 00 00 	lea    0x1418(%rip),%rdi        # 403187 <_IO_stdin_used+0x477>
  401d6f:	e8 bc ee ff ff       	callq  400c30 <puts@plt>
  401d74:	be 00 00 00 00       	mov    $0x0,%esi
  401d79:	bf 00 00 00 00       	mov    $0x0,%edi
  401d7e:	e8 0b fd ff ff       	callq  401a8e <notify_server>
  401d83:	bf 01 00 00 00       	mov    $0x1,%edi
  401d88:	e8 23 f0 ff ff       	callq  400db0 <exit@plt>

0000000000401d8d <seghandler>:
  401d8d:	48 83 ec 08          	sub    $0x8,%rsp
  401d91:	83 3d 70 27 20 00 00 	cmpl   $0x0,0x202770(%rip)        # 604508 <is_checker>
  401d98:	74 16                	je     401db0 <seghandler+0x23>
  401d9a:	48 8d 3d fc 13 00 00 	lea    0x13fc(%rip),%rdi        # 40319d <_IO_stdin_used+0x48d>
  401da1:	e8 8a ee ff ff       	callq  400c30 <puts@plt>
  401da6:	b8 00 00 00 00       	mov    $0x0,%eax
  401dab:	e8 59 fc ff ff       	callq  401a09 <check_fail>
  401db0:	48 8d 3d 51 15 00 00 	lea    0x1551(%rip),%rdi        # 403308 <_IO_stdin_used+0x5f8>
  401db7:	e8 74 ee ff ff       	callq  400c30 <puts@plt>
  401dbc:	48 8d 3d c4 13 00 00 	lea    0x13c4(%rip),%rdi        # 403187 <_IO_stdin_used+0x477>
  401dc3:	e8 68 ee ff ff       	callq  400c30 <puts@plt>
  401dc8:	be 00 00 00 00       	mov    $0x0,%esi
  401dcd:	bf 00 00 00 00       	mov    $0x0,%edi
  401dd2:	e8 b7 fc ff ff       	callq  401a8e <notify_server>
  401dd7:	bf 01 00 00 00       	mov    $0x1,%edi
  401ddc:	e8 cf ef ff ff       	callq  400db0 <exit@plt>

0000000000401de1 <illegalhandler>:
  401de1:	48 83 ec 08          	sub    $0x8,%rsp
  401de5:	83 3d 1c 27 20 00 00 	cmpl   $0x0,0x20271c(%rip)        # 604508 <is_checker>
  401dec:	74 16                	je     401e04 <illegalhandler+0x23>
  401dee:	48 8d 3d bb 13 00 00 	lea    0x13bb(%rip),%rdi        # 4031b0 <_IO_stdin_used+0x4a0>
  401df5:	e8 36 ee ff ff       	callq  400c30 <puts@plt>
  401dfa:	b8 00 00 00 00       	mov    $0x0,%eax
  401dff:	e8 05 fc ff ff       	callq  401a09 <check_fail>
  401e04:	48 8d 3d 25 15 00 00 	lea    0x1525(%rip),%rdi        # 403330 <_IO_stdin_used+0x620>
  401e0b:	e8 20 ee ff ff       	callq  400c30 <puts@plt>
  401e10:	48 8d 3d 70 13 00 00 	lea    0x1370(%rip),%rdi        # 403187 <_IO_stdin_used+0x477>
  401e17:	e8 14 ee ff ff       	callq  400c30 <puts@plt>
  401e1c:	be 00 00 00 00       	mov    $0x0,%esi
  401e21:	bf 00 00 00 00       	mov    $0x0,%edi
  401e26:	e8 63 fc ff ff       	callq  401a8e <notify_server>
  401e2b:	bf 01 00 00 00       	mov    $0x1,%edi
  401e30:	e8 7b ef ff ff       	callq  400db0 <exit@plt>

0000000000401e35 <sigalrmhandler>:
  401e35:	48 83 ec 08          	sub    $0x8,%rsp
  401e39:	83 3d c8 26 20 00 00 	cmpl   $0x0,0x2026c8(%rip)        # 604508 <is_checker>
  401e40:	74 16                	je     401e58 <sigalrmhandler+0x23>
  401e42:	48 8d 3d 7b 13 00 00 	lea    0x137b(%rip),%rdi        # 4031c4 <_IO_stdin_used+0x4b4>
  401e49:	e8 e2 ed ff ff       	callq  400c30 <puts@plt>
  401e4e:	b8 00 00 00 00       	mov    $0x0,%eax
  401e53:	e8 b1 fb ff ff       	callq  401a09 <check_fail>
  401e58:	be 05 00 00 00       	mov    $0x5,%esi
  401e5d:	48 8d 3d fc 14 00 00 	lea    0x14fc(%rip),%rdi        # 403360 <_IO_stdin_used+0x650>
  401e64:	b8 00 00 00 00       	mov    $0x0,%eax
  401e69:	e8 f2 ed ff ff       	callq  400c60 <printf@plt>
  401e6e:	be 00 00 00 00       	mov    $0x0,%esi
  401e73:	bf 00 00 00 00       	mov    $0x0,%edi
  401e78:	e8 11 fc ff ff       	callq  401a8e <notify_server>
  401e7d:	bf 01 00 00 00       	mov    $0x1,%edi
  401e82:	e8 29 ef ff ff       	callq  400db0 <exit@plt>

0000000000401e87 <launch>:
  401e87:	55                   	push   %rbp
  401e88:	48 89 e5             	mov    %rsp,%rbp
  401e8b:	48 89 fa             	mov    %rdi,%rdx
  401e8e:	48 8d 47 1e          	lea    0x1e(%rdi),%rax
  401e92:	48 83 e0 f0          	and    $0xfffffffffffffff0,%rax
  401e96:	48 29 c4             	sub    %rax,%rsp
  401e99:	48 8d 7c 24 0f       	lea    0xf(%rsp),%rdi
  401e9e:	48 83 e7 f0          	and    $0xfffffffffffffff0,%rdi
  401ea2:	be f4 00 00 00       	mov    $0xf4,%esi
  401ea7:	e8 c4 ed ff ff       	callq  400c70 <memset@plt>
  401eac:	48 8b 05 ed 25 20 00 	mov    0x2025ed(%rip),%rax        # 6044a0 <stdin@@GLIBC_2.2.5>
  401eb3:	48 39 05 36 26 20 00 	cmp    %rax,0x202636(%rip)        # 6044f0 <infile>
  401eba:	74 2b                	je     401ee7 <launch+0x60>
  401ebc:	c7 05 36 26 20 00 00 	movl   $0x0,0x202636(%rip)        # 6044fc <vlevel>
  401ec3:	00 00 00 
  401ec6:	b8 00 00 00 00       	mov    $0x0,%eax
  401ecb:	e8 a3 fa ff ff       	callq  401973 <test>
  401ed0:	83 3d 31 26 20 00 00 	cmpl   $0x0,0x202631(%rip)        # 604508 <is_checker>
  401ed7:	75 21                	jne    401efa <launch+0x73>
  401ed9:	48 8d 3d 04 13 00 00 	lea    0x1304(%rip),%rdi        # 4031e4 <_IO_stdin_used+0x4d4>
  401ee0:	e8 4b ed ff ff       	callq  400c30 <puts@plt>
  401ee5:	c9                   	leaveq 
  401ee6:	c3                   	retq   
  401ee7:	48 8d 3d de 12 00 00 	lea    0x12de(%rip),%rdi        # 4031cc <_IO_stdin_used+0x4bc>
  401eee:	b8 00 00 00 00       	mov    $0x0,%eax
  401ef3:	e8 68 ed ff ff       	callq  400c60 <printf@plt>
  401ef8:	eb c2                	jmp    401ebc <launch+0x35>
  401efa:	48 8d 3d d8 12 00 00 	lea    0x12d8(%rip),%rdi        # 4031d9 <_IO_stdin_used+0x4c9>
  401f01:	e8 2a ed ff ff       	callq  400c30 <puts@plt>
  401f06:	b8 00 00 00 00       	mov    $0x0,%eax
  401f0b:	e8 f9 fa ff ff       	callq  401a09 <check_fail>

0000000000401f10 <stable_launch>:
  401f10:	53                   	push   %rbx
  401f11:	48 89 3d d0 25 20 00 	mov    %rdi,0x2025d0(%rip)        # 6044e8 <global_offset>
  401f18:	41 b9 00 00 00 00    	mov    $0x0,%r9d
  401f1e:	41 b8 00 00 00 00    	mov    $0x0,%r8d
  401f24:	b9 32 01 00 00       	mov    $0x132,%ecx
  401f29:	ba 07 00 00 00       	mov    $0x7,%edx
  401f2e:	be 00 00 10 00       	mov    $0x100000,%esi
  401f33:	bf 00 60 58 55       	mov    $0x55586000,%edi
  401f38:	e8 13 ed ff ff       	callq  400c50 <mmap@plt>
  401f3d:	48 89 c3             	mov    %rax,%rbx
  401f40:	48 3d 00 60 58 55    	cmp    $0x55586000,%rax
  401f46:	75 43                	jne    401f8b <stable_launch+0x7b>
  401f48:	48 8d 90 f8 ff 0f 00 	lea    0xffff8(%rax),%rdx
  401f4f:	48 89 15 da 31 20 00 	mov    %rdx,0x2031da(%rip)        # 605130 <stack_top>
  401f56:	48 89 e0             	mov    %rsp,%rax
  401f59:	48 89 d4             	mov    %rdx,%rsp
  401f5c:	48 89 c2             	mov    %rax,%rdx
  401f5f:	48 89 15 7a 25 20 00 	mov    %rdx,0x20257a(%rip)        # 6044e0 <global_save_stack>
  401f66:	48 8b 3d 7b 25 20 00 	mov    0x20257b(%rip),%rdi        # 6044e8 <global_offset>
  401f6d:	e8 15 ff ff ff       	callq  401e87 <launch>
  401f72:	48 8b 05 67 25 20 00 	mov    0x202567(%rip),%rax        # 6044e0 <global_save_stack>
  401f79:	48 89 c4             	mov    %rax,%rsp
  401f7c:	be 00 00 10 00       	mov    $0x100000,%esi
  401f81:	48 89 df             	mov    %rbx,%rdi
  401f84:	e8 b7 ed ff ff       	callq  400d40 <munmap@plt>
  401f89:	5b                   	pop    %rbx
  401f8a:	c3                   	retq   
  401f8b:	be 00 00 10 00       	mov    $0x100000,%esi
  401f90:	48 89 c7             	mov    %rax,%rdi
  401f93:	e8 a8 ed ff ff       	callq  400d40 <munmap@plt>
  401f98:	ba 00 60 58 55       	mov    $0x55586000,%edx
  401f9d:	48 8d 35 f4 13 00 00 	lea    0x13f4(%rip),%rsi        # 403398 <_IO_stdin_used+0x688>
  401fa4:	48 8b 3d 15 25 20 00 	mov    0x202515(%rip),%rdi        # 6044c0 <stderr@@GLIBC_2.2.5>
  401fab:	b8 00 00 00 00       	mov    $0x0,%eax
  401fb0:	e8 1b ed ff ff       	callq  400cd0 <fprintf@plt>
  401fb5:	bf 01 00 00 00       	mov    $0x1,%edi
  401fba:	e8 f1 ed ff ff       	callq  400db0 <exit@plt>

0000000000401fbf <rio_readinitb>:
  401fbf:	89 37                	mov    %esi,(%rdi)
  401fc1:	c7 47 04 00 00 00 00 	movl   $0x0,0x4(%rdi)
  401fc8:	48 8d 47 10          	lea    0x10(%rdi),%rax
  401fcc:	48 89 47 08          	mov    %rax,0x8(%rdi)
  401fd0:	c3                   	retq   

0000000000401fd1 <sigalrm_handler>:
  401fd1:	48 83 ec 08          	sub    $0x8,%rsp
  401fd5:	ba 00 00 00 00       	mov    $0x0,%edx
  401fda:	48 8d 35 ef 13 00 00 	lea    0x13ef(%rip),%rsi        # 4033d0 <trans_char+0x10>
  401fe1:	48 8b 3d d8 24 20 00 	mov    0x2024d8(%rip),%rdi        # 6044c0 <stderr@@GLIBC_2.2.5>
  401fe8:	b8 00 00 00 00       	mov    $0x0,%eax
  401fed:	e8 de ec ff ff       	callq  400cd0 <fprintf@plt>
  401ff2:	bf 01 00 00 00       	mov    $0x1,%edi
  401ff7:	e8 b4 ed ff ff       	callq  400db0 <exit@plt>

0000000000401ffc <urlencode>:
  401ffc:	41 54                	push   %r12
  401ffe:	55                   	push   %rbp
  401fff:	53                   	push   %rbx
  402000:	48 83 ec 10          	sub    $0x10,%rsp
  402004:	48 89 fb             	mov    %rdi,%rbx
  402007:	48 89 f5             	mov    %rsi,%rbp
  40200a:	b8 00 00 00 00       	mov    $0x0,%eax
  40200f:	48 c7 c1 ff ff ff ff 	mov    $0xffffffffffffffff,%rcx
  402016:	f2 ae                	repnz scas %es:(%rdi),%al
  402018:	48 f7 d1             	not    %rcx
  40201b:	8d 41 ff             	lea    -0x1(%rcx),%eax
  40201e:	eb 0e                	jmp    40202e <urlencode+0x32>
  402020:	88 55 00             	mov    %dl,0x0(%rbp)
  402023:	48 8d 6d 01          	lea    0x1(%rbp),%rbp
  402027:	48 83 c3 01          	add    $0x1,%rbx
  40202b:	44 89 e0             	mov    %r12d,%eax
  40202e:	44 8d 60 ff          	lea    -0x1(%rax),%r12d
  402032:	85 c0                	test   %eax,%eax
  402034:	0f 84 95 00 00 00    	je     4020cf <urlencode+0xd3>
  40203a:	0f b6 13             	movzbl (%rbx),%edx
  40203d:	80 fa 2a             	cmp    $0x2a,%dl
  402040:	0f 94 c1             	sete   %cl
  402043:	80 fa 2d             	cmp    $0x2d,%dl
  402046:	0f 94 c0             	sete   %al
  402049:	08 c1                	or     %al,%cl
  40204b:	75 d3                	jne    402020 <urlencode+0x24>
  40204d:	80 fa 2e             	cmp    $0x2e,%dl
  402050:	74 ce                	je     402020 <urlencode+0x24>
  402052:	80 fa 5f             	cmp    $0x5f,%dl
  402055:	74 c9                	je     402020 <urlencode+0x24>
  402057:	8d 42 d0             	lea    -0x30(%rdx),%eax
  40205a:	3c 09                	cmp    $0x9,%al
  40205c:	76 c2                	jbe    402020 <urlencode+0x24>
  40205e:	8d 42 bf             	lea    -0x41(%rdx),%eax
  402061:	3c 19                	cmp    $0x19,%al
  402063:	76 bb                	jbe    402020 <urlencode+0x24>
  402065:	8d 42 9f             	lea    -0x61(%rdx),%eax
  402068:	3c 19                	cmp    $0x19,%al
  40206a:	76 b4                	jbe    402020 <urlencode+0x24>
  40206c:	80 fa 20             	cmp    $0x20,%dl
  40206f:	74 4c                	je     4020bd <urlencode+0xc1>
  402071:	8d 42 e0             	lea    -0x20(%rdx),%eax
  402074:	3c 5f                	cmp    $0x5f,%al
  402076:	0f 96 c1             	setbe  %cl
  402079:	80 fa 09             	cmp    $0x9,%dl
  40207c:	0f 94 c0             	sete   %al
  40207f:	08 c1                	or     %al,%cl
  402081:	74 47                	je     4020ca <urlencode+0xce>
  402083:	0f b6 d2             	movzbl %dl,%edx
  402086:	48 8d 7c 24 08       	lea    0x8(%rsp),%rdi
  40208b:	48 8d 35 d6 13 00 00 	lea    0x13d6(%rip),%rsi        # 403468 <trans_char+0xa8>
  402092:	b8 00 00 00 00       	mov    $0x0,%eax
  402097:	e8 04 ed ff ff       	callq  400da0 <sprintf@plt>
  40209c:	0f b6 44 24 08       	movzbl 0x8(%rsp),%eax
  4020a1:	88 45 00             	mov    %al,0x0(%rbp)
  4020a4:	0f b6 44 24 09       	movzbl 0x9(%rsp),%eax
  4020a9:	88 45 01             	mov    %al,0x1(%rbp)
  4020ac:	0f b6 44 24 0a       	movzbl 0xa(%rsp),%eax
  4020b1:	88 45 02             	mov    %al,0x2(%rbp)
  4020b4:	48 8d 6d 03          	lea    0x3(%rbp),%rbp
  4020b8:	e9 6a ff ff ff       	jmpq   402027 <urlencode+0x2b>
  4020bd:	c6 45 00 2b          	movb   $0x2b,0x0(%rbp)
  4020c1:	48 8d 6d 01          	lea    0x1(%rbp),%rbp
  4020c5:	e9 5d ff ff ff       	jmpq   402027 <urlencode+0x2b>
  4020ca:	b8 ff ff ff ff       	mov    $0xffffffff,%eax
  4020cf:	48 83 c4 10          	add    $0x10,%rsp
  4020d3:	5b                   	pop    %rbx
  4020d4:	5d                   	pop    %rbp
  4020d5:	41 5c                	pop    %r12
  4020d7:	c3                   	retq   

00000000004020d8 <rio_writen>:
  4020d8:	41 55                	push   %r13
  4020da:	41 54                	push   %r12
  4020dc:	55                   	push   %rbp
  4020dd:	53                   	push   %rbx
  4020de:	48 83 ec 08          	sub    $0x8,%rsp
  4020e2:	41 89 fc             	mov    %edi,%r12d
  4020e5:	49 89 d5             	mov    %rdx,%r13
  4020e8:	48 89 f5             	mov    %rsi,%rbp
  4020eb:	48 89 d3             	mov    %rdx,%rbx
  4020ee:	eb 06                	jmp    4020f6 <rio_writen+0x1e>
  4020f0:	48 29 c3             	sub    %rax,%rbx
  4020f3:	48 01 c5             	add    %rax,%rbp
  4020f6:	48 85 db             	test   %rbx,%rbx
  4020f9:	74 24                	je     40211f <rio_writen+0x47>
  4020fb:	48 89 da             	mov    %rbx,%rdx
  4020fe:	48 89 ee             	mov    %rbp,%rsi
  402101:	44 89 e7             	mov    %r12d,%edi
  402104:	e8 37 eb ff ff       	callq  400c40 <write@plt>
  402109:	48 85 c0             	test   %rax,%rax
  40210c:	7f e2                	jg     4020f0 <rio_writen+0x18>
  40210e:	e8 dd ea ff ff       	callq  400bf0 <__errno_location@plt>
  402113:	83 38 04             	cmpl   $0x4,(%rax)
  402116:	75 15                	jne    40212d <rio_writen+0x55>
  402118:	b8 00 00 00 00       	mov    $0x0,%eax
  40211d:	eb d1                	jmp    4020f0 <rio_writen+0x18>
  40211f:	4c 89 e8             	mov    %r13,%rax
  402122:	48 83 c4 08          	add    $0x8,%rsp
  402126:	5b                   	pop    %rbx
  402127:	5d                   	pop    %rbp
  402128:	41 5c                	pop    %r12
  40212a:	41 5d                	pop    %r13
  40212c:	c3                   	retq   
  40212d:	48 c7 c0 ff ff ff ff 	mov    $0xffffffffffffffff,%rax
  402134:	eb ec                	jmp    402122 <rio_writen+0x4a>

0000000000402136 <rio_read>:
  402136:	41 55                	push   %r13
  402138:	41 54                	push   %r12
  40213a:	55                   	push   %rbp
  40213b:	53                   	push   %rbx
  40213c:	48 83 ec 08          	sub    $0x8,%rsp
  402140:	48 89 fb             	mov    %rdi,%rbx
  402143:	49 89 f5             	mov    %rsi,%r13
  402146:	49 89 d4             	mov    %rdx,%r12
  402149:	eb 0a                	jmp    402155 <rio_read+0x1f>
  40214b:	e8 a0 ea ff ff       	callq  400bf0 <__errno_location@plt>
  402150:	83 38 04             	cmpl   $0x4,(%rax)
  402153:	75 5c                	jne    4021b1 <rio_read+0x7b>
  402155:	8b 6b 04             	mov    0x4(%rbx),%ebp
  402158:	85 ed                	test   %ebp,%ebp
  40215a:	7f 24                	jg     402180 <rio_read+0x4a>
  40215c:	48 8d 6b 10          	lea    0x10(%rbx),%rbp
  402160:	ba 00 20 00 00       	mov    $0x2000,%edx
  402165:	48 89 ee             	mov    %rbp,%rsi
  402168:	8b 3b                	mov    (%rbx),%edi
  40216a:	e8 31 eb ff ff       	callq  400ca0 <read@plt>
  40216f:	89 43 04             	mov    %eax,0x4(%rbx)
  402172:	85 c0                	test   %eax,%eax
  402174:	78 d5                	js     40214b <rio_read+0x15>
  402176:	85 c0                	test   %eax,%eax
  402178:	74 40                	je     4021ba <rio_read+0x84>
  40217a:	48 89 6b 08          	mov    %rbp,0x8(%rbx)
  40217e:	eb d5                	jmp    402155 <rio_read+0x1f>
  402180:	89 e8                	mov    %ebp,%eax
  402182:	49 39 c4             	cmp    %rax,%r12
  402185:	77 03                	ja     40218a <rio_read+0x54>
  402187:	44 89 e5             	mov    %r12d,%ebp
  40218a:	4c 63 e5             	movslq %ebp,%r12
  40218d:	48 8b 73 08          	mov    0x8(%rbx),%rsi
  402191:	4c 89 e2             	mov    %r12,%rdx
  402194:	4c 89 ef             	mov    %r13,%rdi
  402197:	e8 54 eb ff ff       	callq  400cf0 <memcpy@plt>
  40219c:	4c 01 63 08          	add    %r12,0x8(%rbx)
  4021a0:	29 6b 04             	sub    %ebp,0x4(%rbx)
  4021a3:	4c 89 e0             	mov    %r12,%rax
  4021a6:	48 83 c4 08          	add    $0x8,%rsp
  4021aa:	5b                   	pop    %rbx
  4021ab:	5d                   	pop    %rbp
  4021ac:	41 5c                	pop    %r12
  4021ae:	41 5d                	pop    %r13
  4021b0:	c3                   	retq   
  4021b1:	48 c7 c0 ff ff ff ff 	mov    $0xffffffffffffffff,%rax
  4021b8:	eb ec                	jmp    4021a6 <rio_read+0x70>
  4021ba:	b8 00 00 00 00       	mov    $0x0,%eax
  4021bf:	eb e5                	jmp    4021a6 <rio_read+0x70>

00000000004021c1 <rio_readlineb>:
  4021c1:	41 55                	push   %r13
  4021c3:	41 54                	push   %r12
  4021c5:	55                   	push   %rbp
  4021c6:	53                   	push   %rbx
  4021c7:	48 83 ec 18          	sub    $0x18,%rsp
  4021cb:	49 89 fd             	mov    %rdi,%r13
  4021ce:	49 89 d4             	mov    %rdx,%r12
  4021d1:	48 89 f5             	mov    %rsi,%rbp
  4021d4:	bb 01 00 00 00       	mov    $0x1,%ebx
  4021d9:	4c 39 e3             	cmp    %r12,%rbx
  4021dc:	73 47                	jae    402225 <rio_readlineb+0x64>
  4021de:	48 8d 74 24 0f       	lea    0xf(%rsp),%rsi
  4021e3:	ba 01 00 00 00       	mov    $0x1,%edx
  4021e8:	4c 89 ef             	mov    %r13,%rdi
  4021eb:	e8 46 ff ff ff       	callq  402136 <rio_read>
  4021f0:	83 f8 01             	cmp    $0x1,%eax
  4021f3:	75 1c                	jne    402211 <rio_readlineb+0x50>
  4021f5:	48 8d 45 01          	lea    0x1(%rbp),%rax
  4021f9:	0f b6 54 24 0f       	movzbl 0xf(%rsp),%edx
  4021fe:	88 55 00             	mov    %dl,0x0(%rbp)
  402201:	80 7c 24 0f 0a       	cmpb   $0xa,0xf(%rsp)
  402206:	74 1a                	je     402222 <rio_readlineb+0x61>
  402208:	48 83 c3 01          	add    $0x1,%rbx
  40220c:	48 89 c5             	mov    %rax,%rbp
  40220f:	eb c8                	jmp    4021d9 <rio_readlineb+0x18>
  402211:	85 c0                	test   %eax,%eax
  402213:	75 22                	jne    402237 <rio_readlineb+0x76>
  402215:	48 83 fb 01          	cmp    $0x1,%rbx
  402219:	75 0a                	jne    402225 <rio_readlineb+0x64>
  40221b:	b8 00 00 00 00       	mov    $0x0,%eax
  402220:	eb 0a                	jmp    40222c <rio_readlineb+0x6b>
  402222:	48 89 c5             	mov    %rax,%rbp
  402225:	c6 45 00 00          	movb   $0x0,0x0(%rbp)
  402229:	48 89 d8             	mov    %rbx,%rax
  40222c:	48 83 c4 18          	add    $0x18,%rsp
  402230:	5b                   	pop    %rbx
  402231:	5d                   	pop    %rbp
  402232:	41 5c                	pop    %r12
  402234:	41 5d                	pop    %r13
  402236:	c3                   	retq   
  402237:	48 c7 c0 ff ff ff ff 	mov    $0xffffffffffffffff,%rax
  40223e:	eb ec                	jmp    40222c <rio_readlineb+0x6b>

0000000000402240 <submitr>:
  402240:	41 57                	push   %r15
  402242:	41 56                	push   %r14
  402244:	41 55                	push   %r13
  402246:	41 54                	push   %r12
  402248:	55                   	push   %rbp
  402249:	53                   	push   %rbx
  40224a:	48 81 ec 58 a0 00 00 	sub    $0xa058,%rsp
  402251:	49 89 fd             	mov    %rdi,%r13
  402254:	89 74 24 14          	mov    %esi,0x14(%rsp)
  402258:	49 89 d7             	mov    %rdx,%r15
  40225b:	48 89 4c 24 08       	mov    %rcx,0x8(%rsp)
  402260:	4c 89 44 24 18       	mov    %r8,0x18(%rsp)
  402265:	4d 89 ce             	mov    %r9,%r14
  402268:	48 8b 9c 24 90 a0 00 	mov    0xa090(%rsp),%rbx
  40226f:	00 
  402270:	c7 84 24 2c 20 00 00 	movl   $0x0,0x202c(%rsp)
  402277:	00 00 00 00 
  40227b:	ba 00 00 00 00       	mov    $0x0,%edx
  402280:	be 01 00 00 00       	mov    $0x1,%esi
  402285:	bf 02 00 00 00       	mov    $0x2,%edi
  40228a:	e8 41 eb ff ff       	callq  400dd0 <socket@plt>
  40228f:	85 c0                	test   %eax,%eax
  402291:	0f 88 ca 01 00 00    	js     402461 <submitr+0x221>
  402297:	89 c5                	mov    %eax,%ebp
  402299:	4c 89 ef             	mov    %r13,%rdi
  40229c:	e8 1f ea ff ff       	callq  400cc0 <gethostbyname@plt>
  4022a1:	48 85 c0             	test   %rax,%rax
  4022a4:	0f 84 05 02 00 00    	je     4024af <submitr+0x26f>
  4022aa:	4c 8d a4 24 40 a0 00 	lea    0xa040(%rsp),%r12
  4022b1:	00 
  4022b2:	48 c7 84 24 40 a0 00 	movq   $0x0,0xa040(%rsp)
  4022b9:	00 00 00 00 00 
  4022be:	48 c7 84 24 48 a0 00 	movq   $0x0,0xa048(%rsp)
  4022c5:	00 00 00 00 00 
  4022ca:	66 c7 84 24 40 a0 00 	movw   $0x2,0xa040(%rsp)
  4022d1:	00 02 00 
  4022d4:	48 8b 48 18          	mov    0x18(%rax),%rcx
  4022d8:	48 63 50 14          	movslq 0x14(%rax),%rdx
  4022dc:	48 8d b4 24 44 a0 00 	lea    0xa044(%rsp),%rsi
  4022e3:	00 
  4022e4:	48 8b 39             	mov    (%rcx),%rdi
  4022e7:	e8 64 ea ff ff       	callq  400d50 <bcopy@plt>
  4022ec:	0f b7 44 24 14       	movzwl 0x14(%rsp),%eax
  4022f1:	66 c1 c8 08          	ror    $0x8,%ax
  4022f5:	66 89 84 24 42 a0 00 	mov    %ax,0xa042(%rsp)
  4022fc:	00 
  4022fd:	ba 10 00 00 00       	mov    $0x10,%edx
  402302:	4c 89 e6             	mov    %r12,%rsi
  402305:	89 ef                	mov    %ebp,%edi
  402307:	e8 b4 ea ff ff       	callq  400dc0 <connect@plt>
  40230c:	85 c0                	test   %eax,%eax
  40230e:	0f 88 02 02 00 00    	js     402516 <submitr+0x2d6>
  402314:	48 c7 c6 ff ff ff ff 	mov    $0xffffffffffffffff,%rsi
  40231b:	b8 00 00 00 00       	mov    $0x0,%eax
  402320:	48 89 f1             	mov    %rsi,%rcx
  402323:	4c 89 f7             	mov    %r14,%rdi
  402326:	f2 ae                	repnz scas %es:(%rdi),%al
  402328:	48 f7 d1             	not    %rcx
  40232b:	48 89 ca             	mov    %rcx,%rdx
  40232e:	48 89 f1             	mov    %rsi,%rcx
  402331:	4c 89 ff             	mov    %r15,%rdi
  402334:	f2 ae                	repnz scas %es:(%rdi),%al
  402336:	48 f7 d1             	not    %rcx
  402339:	49 89 c8             	mov    %rcx,%r8
  40233c:	48 89 f1             	mov    %rsi,%rcx
  40233f:	48 8b 7c 24 08       	mov    0x8(%rsp),%rdi
  402344:	f2 ae                	repnz scas %es:(%rdi),%al
  402346:	48 f7 d1             	not    %rcx
  402349:	4d 8d 44 08 fe       	lea    -0x2(%r8,%rcx,1),%r8
  40234e:	48 89 f1             	mov    %rsi,%rcx
  402351:	48 8b 7c 24 18       	mov    0x18(%rsp),%rdi
  402356:	f2 ae                	repnz scas %es:(%rdi),%al
  402358:	48 89 c8             	mov    %rcx,%rax
  40235b:	48 f7 d0             	not    %rax
  40235e:	49 8d 4c 00 ff       	lea    -0x1(%r8,%rax,1),%rcx
  402363:	48 8d 44 52 fd       	lea    -0x3(%rdx,%rdx,2),%rax
  402368:	48 8d 84 01 80 00 00 	lea    0x80(%rcx,%rax,1),%rax
  40236f:	00 
  402370:	48 3d 00 20 00 00    	cmp    $0x2000,%rax
  402376:	0f 87 f3 01 00 00    	ja     40256f <submitr+0x32f>
  40237c:	48 8d b4 24 30 40 00 	lea    0x4030(%rsp),%rsi
  402383:	00 
  402384:	b9 00 04 00 00       	mov    $0x400,%ecx
  402389:	b8 00 00 00 00       	mov    $0x0,%eax
  40238e:	48 89 f7             	mov    %rsi,%rdi
  402391:	f3 48 ab             	rep stos %rax,%es:(%rdi)
  402394:	4c 89 f7             	mov    %r14,%rdi
  402397:	e8 60 fc ff ff       	callq  401ffc <urlencode>
  40239c:	85 c0                	test   %eax,%eax
  40239e:	0f 88 3d 02 00 00    	js     4025e1 <submitr+0x3a1>
  4023a4:	4c 8d a4 24 30 60 00 	lea    0x6030(%rsp),%r12
  4023ab:	00 
  4023ac:	4d 89 e9             	mov    %r13,%r9
  4023af:	4c 8d 84 24 30 40 00 	lea    0x4030(%rsp),%r8
  4023b6:	00 
  4023b7:	4c 89 f9             	mov    %r15,%rcx
  4023ba:	48 8b 54 24 08       	mov    0x8(%rsp),%rdx
  4023bf:	48 8d 35 32 10 00 00 	lea    0x1032(%rip),%rsi        # 4033f8 <trans_char+0x38>
  4023c6:	4c 89 e7             	mov    %r12,%rdi
  4023c9:	b8 00 00 00 00       	mov    $0x0,%eax
  4023ce:	e8 cd e9 ff ff       	callq  400da0 <sprintf@plt>
  4023d3:	b8 00 00 00 00       	mov    $0x0,%eax
  4023d8:	48 c7 c1 ff ff ff ff 	mov    $0xffffffffffffffff,%rcx
  4023df:	4c 89 e7             	mov    %r12,%rdi
  4023e2:	f2 ae                	repnz scas %es:(%rdi),%al
  4023e4:	48 f7 d1             	not    %rcx
  4023e7:	48 8d 51 ff          	lea    -0x1(%rcx),%rdx
  4023eb:	4c 89 e6             	mov    %r12,%rsi
  4023ee:	89 ef                	mov    %ebp,%edi
  4023f0:	e8 e3 fc ff ff       	callq  4020d8 <rio_writen>
  4023f5:	48 85 c0             	test   %rax,%rax
  4023f8:	0f 88 6d 02 00 00    	js     40266b <submitr+0x42b>
  4023fe:	4c 8d a4 24 30 80 00 	lea    0x8030(%rsp),%r12
  402405:	00 
  402406:	89 ee                	mov    %ebp,%esi
  402408:	4c 89 e7             	mov    %r12,%rdi
  40240b:	e8 af fb ff ff       	callq  401fbf <rio_readinitb>
  402410:	48 8d b4 24 30 60 00 	lea    0x6030(%rsp),%rsi
  402417:	00 
  402418:	ba 00 20 00 00       	mov    $0x2000,%edx
  40241d:	4c 89 e7             	mov    %r12,%rdi
  402420:	e8 9c fd ff ff       	callq  4021c1 <rio_readlineb>
  402425:	48 85 c0             	test   %rax,%rax
  402428:	0f 8e ab 02 00 00    	jle    4026d9 <submitr+0x499>
  40242e:	48 8d 8c 24 2c 20 00 	lea    0x202c(%rsp),%rcx
  402435:	00 
  402436:	48 8d 94 24 30 20 00 	lea    0x2030(%rsp),%rdx
  40243d:	00 
  40243e:	48 8d bc 24 30 60 00 	lea    0x6030(%rsp),%rdi
  402445:	00 
  402446:	4c 8d 44 24 20       	lea    0x20(%rsp),%r8
  40244b:	48 8d 35 1d 10 00 00 	lea    0x101d(%rip),%rsi        # 40346f <trans_char+0xaf>
  402452:	b8 00 00 00 00       	mov    $0x0,%eax
  402457:	e8 d4 e8 ff ff       	callq  400d30 <__isoc99_sscanf@plt>
  40245c:	e9 9f 03 00 00       	jmpq   402800 <submitr+0x5c0>
  402461:	48 b8 45 72 72 6f 72 	movabs $0x43203a726f727245,%rax
  402468:	3a 20 43 
  40246b:	48 89 03             	mov    %rax,(%rbx)
  40246e:	48 b8 6c 69 65 6e 74 	movabs $0x6e7520746e65696c,%rax
  402475:	20 75 6e 
  402478:	48 89 43 08          	mov    %rax,0x8(%rbx)
  40247c:	48 b8 61 62 6c 65 20 	movabs $0x206f7420656c6261,%rax
  402483:	74 6f 20 
  402486:	48 89 43 10          	mov    %rax,0x10(%rbx)
  40248a:	48 b8 63 72 65 61 74 	movabs $0x7320657461657263,%rax
  402491:	65 20 73 
  402494:	48 89 43 18          	mov    %rax,0x18(%rbx)
  402498:	c7 43 20 6f 63 6b 65 	movl   $0x656b636f,0x20(%rbx)
  40249f:	66 c7 43 24 74 00    	movw   $0x74,0x24(%rbx)
  4024a5:	b8 ff ff ff ff       	mov    $0xffffffff,%eax
  4024aa:	e9 18 03 00 00       	jmpq   4027c7 <submitr+0x587>
  4024af:	48 b8 45 72 72 6f 72 	movabs $0x44203a726f727245,%rax
  4024b6:	3a 20 44 
  4024b9:	48 89 03             	mov    %rax,(%rbx)
  4024bc:	48 b8 4e 53 20 69 73 	movabs $0x6e7520736920534e,%rax
  4024c3:	20 75 6e 
  4024c6:	48 89 43 08          	mov    %rax,0x8(%rbx)
  4024ca:	48 b8 61 62 6c 65 20 	movabs $0x206f7420656c6261,%rax
  4024d1:	74 6f 20 
  4024d4:	48 89 43 10          	mov    %rax,0x10(%rbx)
  4024d8:	48 b8 72 65 73 6f 6c 	movabs $0x2065766c6f736572,%rax
  4024df:	76 65 20 
  4024e2:	48 89 43 18          	mov    %rax,0x18(%rbx)
  4024e6:	48 b8 73 65 72 76 65 	movabs $0x6120726576726573,%rax
  4024ed:	72 20 61 
  4024f0:	48 89 43 20          	mov    %rax,0x20(%rbx)
  4024f4:	c7 43 28 64 64 72 65 	movl   $0x65726464,0x28(%rbx)
  4024fb:	66 c7 43 2c 73 73    	movw   $0x7373,0x2c(%rbx)
  402501:	c6 43 2e 00          	movb   $0x0,0x2e(%rbx)
  402505:	89 ef                	mov    %ebp,%edi
  402507:	e8 84 e7 ff ff       	callq  400c90 <close@plt>
  40250c:	b8 ff ff ff ff       	mov    $0xffffffff,%eax
  402511:	e9 b1 02 00 00       	jmpq   4027c7 <submitr+0x587>
  402516:	48 b8 45 72 72 6f 72 	movabs $0x55203a726f727245,%rax
  40251d:	3a 20 55 
  402520:	48 89 03             	mov    %rax,(%rbx)
  402523:	48 b8 6e 61 62 6c 65 	movabs $0x6f7420656c62616e,%rax
  40252a:	20 74 6f 
  40252d:	48 89 43 08          	mov    %rax,0x8(%rbx)
  402531:	48 b8 20 63 6f 6e 6e 	movabs $0x7463656e6e6f6320,%rax
  402538:	65 63 74 
  40253b:	48 89 43 10          	mov    %rax,0x10(%rbx)
  40253f:	48 b8 20 74 6f 20 74 	movabs $0x20656874206f7420,%rax
  402546:	68 65 20 
  402549:	48 89 43 18          	mov    %rax,0x18(%rbx)
  40254d:	c7 43 20 73 65 72 76 	movl   $0x76726573,0x20(%rbx)
  402554:	66 c7 43 24 65 72    	movw   $0x7265,0x24(%rbx)
  40255a:	c6 43 26 00          	movb   $0x0,0x26(%rbx)
  40255e:	89 ef                	mov    %ebp,%edi
  402560:	e8 2b e7 ff ff       	callq  400c90 <close@plt>
  402565:	b8 ff ff ff ff       	mov    $0xffffffff,%eax
  40256a:	e9 58 02 00 00       	jmpq   4027c7 <submitr+0x587>
  40256f:	48 b8 45 72 72 6f 72 	movabs $0x52203a726f727245,%rax
  402576:	3a 20 52 
  402579:	48 89 03             	mov    %rax,(%rbx)
  40257c:	48 b8 65 73 75 6c 74 	movabs $0x747320746c757365,%rax
  402583:	20 73 74 
  402586:	48 89 43 08          	mov    %rax,0x8(%rbx)
  40258a:	48 b8 72 69 6e 67 20 	movabs $0x6f6f7420676e6972,%rax
  402591:	74 6f 6f 
  402594:	48 89 43 10          	mov    %rax,0x10(%rbx)
  402598:	48 b8 20 6c 61 72 67 	movabs $0x202e656772616c20,%rax
  40259f:	65 2e 20 
  4025a2:	48 89 43 18          	mov    %rax,0x18(%rbx)
  4025a6:	48 b8 49 6e 63 72 65 	movabs $0x6573616572636e49,%rax
  4025ad:	61 73 65 
  4025b0:	48 89 43 20          	mov    %rax,0x20(%rbx)
  4025b4:	48 b8 20 53 55 42 4d 	movabs $0x5254494d42555320,%rax
  4025bb:	49 54 52 
  4025be:	48 89 43 28          	mov    %rax,0x28(%rbx)
  4025c2:	48 b8 5f 4d 41 58 42 	movabs $0x46554258414d5f,%rax
  4025c9:	55 46 00 
  4025cc:	48 89 43 30          	mov    %rax,0x30(%rbx)
  4025d0:	89 ef                	mov    %ebp,%edi
  4025d2:	e8 b9 e6 ff ff       	callq  400c90 <close@plt>
  4025d7:	b8 ff ff ff ff       	mov    $0xffffffff,%eax
  4025dc:	e9 e6 01 00 00       	jmpq   4027c7 <submitr+0x587>
  4025e1:	48 b8 45 72 72 6f 72 	movabs $0x52203a726f727245,%rax
  4025e8:	3a 20 52 
  4025eb:	48 89 03             	mov    %rax,(%rbx)
  4025ee:	48 b8 65 73 75 6c 74 	movabs $0x747320746c757365,%rax
  4025f5:	20 73 74 
  4025f8:	48 89 43 08          	mov    %rax,0x8(%rbx)
  4025fc:	48 b8 72 69 6e 67 20 	movabs $0x6e6f6320676e6972,%rax
  402603:	63 6f 6e 
  402606:	48 89 43 10          	mov    %rax,0x10(%rbx)
  40260a:	48 b8 74 61 69 6e 73 	movabs $0x6e6120736e696174,%rax
  402611:	20 61 6e 
  402614:	48 89 43 18          	mov    %rax,0x18(%rbx)
  402618:	48 b8 20 69 6c 6c 65 	movabs $0x6c6167656c6c6920,%rax
  40261f:	67 61 6c 
  402622:	48 89 43 20          	mov    %rax,0x20(%rbx)
  402626:	48 b8 20 6f 72 20 75 	movabs $0x72706e7520726f20,%rax
  40262d:	6e 70 72 
  402630:	48 89 43 28          	mov    %rax,0x28(%rbx)
  402634:	48 b8 69 6e 74 61 62 	movabs $0x20656c6261746e69,%rax
  40263b:	6c 65 20 
  40263e:	48 89 43 30          	mov    %rax,0x30(%rbx)
  402642:	48 b8 63 68 61 72 61 	movabs $0x6574636172616863,%rax
  402649:	63 74 65 
  40264c:	48 89 43 38          	mov    %rax,0x38(%rbx)
  402650:	66 c7 43 40 72 2e    	movw   $0x2e72,0x40(%rbx)
  402656:	c6 43 42 00          	movb   $0x0,0x42(%rbx)
  40265a:	89 ef                	mov    %ebp,%edi
  40265c:	e8 2f e6 ff ff       	callq  400c90 <close@plt>
  402661:	b8 ff ff ff ff       	mov    $0xffffffff,%eax
  402666:	e9 5c 01 00 00       	jmpq   4027c7 <submitr+0x587>
  40266b:	48 b8 45 72 72 6f 72 	movabs $0x43203a726f727245,%rax
  402672:	3a 20 43 
  402675:	48 89 03             	mov    %rax,(%rbx)
  402678:	48 b8 6c 69 65 6e 74 	movabs $0x6e7520746e65696c,%rax
  40267f:	20 75 6e 
  402682:	48 89 43 08          	mov    %rax,0x8(%rbx)
  402686:	48 b8 61 62 6c 65 20 	movabs $0x206f7420656c6261,%rax
  40268d:	74 6f 20 
  402690:	48 89 43 10          	mov    %rax,0x10(%rbx)
  402694:	48 b8 77 72 69 74 65 	movabs $0x6f74206574697277,%rax
  40269b:	20 74 6f 
  40269e:	48 89 43 18          	mov    %rax,0x18(%rbx)
  4026a2:	48 b8 20 74 68 65 20 	movabs $0x7365722065687420,%rax
  4026a9:	72 65 73 
  4026ac:	48 89 43 20          	mov    %rax,0x20(%rbx)
  4026b0:	48 b8 75 6c 74 20 73 	movabs $0x7672657320746c75,%rax
  4026b7:	65 72 76 
  4026ba:	48 89 43 28          	mov    %rax,0x28(%rbx)
  4026be:	66 c7 43 30 65 72    	movw   $0x7265,0x30(%rbx)
  4026c4:	c6 43 32 00          	movb   $0x0,0x32(%rbx)
  4026c8:	89 ef                	mov    %ebp,%edi
  4026ca:	e8 c1 e5 ff ff       	callq  400c90 <close@plt>
  4026cf:	b8 ff ff ff ff       	mov    $0xffffffff,%eax
  4026d4:	e9 ee 00 00 00       	jmpq   4027c7 <submitr+0x587>
  4026d9:	48 b8 45 72 72 6f 72 	movabs $0x43203a726f727245,%rax
  4026e0:	3a 20 43 
  4026e3:	48 89 03             	mov    %rax,(%rbx)
  4026e6:	48 b8 6c 69 65 6e 74 	movabs $0x6e7520746e65696c,%rax
  4026ed:	20 75 6e 
  4026f0:	48 89 43 08          	mov    %rax,0x8(%rbx)
  4026f4:	48 b8 61 62 6c 65 20 	movabs $0x206f7420656c6261,%rax
  4026fb:	74 6f 20 
  4026fe:	48 89 43 10          	mov    %rax,0x10(%rbx)
  402702:	48 b8 72 65 61 64 20 	movabs $0x7269662064616572,%rax
  402709:	66 69 72 
  40270c:	48 89 43 18          	mov    %rax,0x18(%rbx)
  402710:	48 b8 73 74 20 68 65 	movabs $0x6564616568207473,%rax
  402717:	61 64 65 
  40271a:	48 89 43 20          	mov    %rax,0x20(%rbx)
  40271e:	48 b8 72 20 66 72 6f 	movabs $0x72206d6f72662072,%rax
  402725:	6d 20 72 
  402728:	48 89 43 28          	mov    %rax,0x28(%rbx)
  40272c:	48 b8 65 73 75 6c 74 	movabs $0x657320746c757365,%rax
  402733:	20 73 65 
  402736:	48 89 43 30          	mov    %rax,0x30(%rbx)
  40273a:	c7 43 38 72 76 65 72 	movl   $0x72657672,0x38(%rbx)
  402741:	c6 43 3c 00          	movb   $0x0,0x3c(%rbx)
  402745:	89 ef                	mov    %ebp,%edi
  402747:	e8 44 e5 ff ff       	callq  400c90 <close@plt>
  40274c:	b8 ff ff ff ff       	mov    $0xffffffff,%eax
  402751:	eb 74                	jmp    4027c7 <submitr+0x587>
  402753:	48 b8 45 72 72 6f 72 	movabs $0x43203a726f727245,%rax
  40275a:	3a 20 43 
  40275d:	48 89 03             	mov    %rax,(%rbx)
  402760:	48 b8 6c 69 65 6e 74 	movabs $0x6e7520746e65696c,%rax
  402767:	20 75 6e 
  40276a:	48 89 43 08          	mov    %rax,0x8(%rbx)
  40276e:	48 b8 61 62 6c 65 20 	movabs $0x206f7420656c6261,%rax
  402775:	74 6f 20 
  402778:	48 89 43 10          	mov    %rax,0x10(%rbx)
  40277c:	48 b8 72 65 61 64 20 	movabs $0x6165682064616572,%rax
  402783:	68 65 61 
  402786:	48 89 43 18          	mov    %rax,0x18(%rbx)
  40278a:	48 b8 64 65 72 73 20 	movabs $0x6f72662073726564,%rax
  402791:	66 72 6f 
  402794:	48 89 43 20          	mov    %rax,0x20(%rbx)
  402798:	48 b8 6d 20 74 68 65 	movabs $0x657220656874206d,%rax
  40279f:	20 72 65 
  4027a2:	48 89 43 28          	mov    %rax,0x28(%rbx)
  4027a6:	48 b8 73 75 6c 74 20 	movabs $0x72657320746c7573,%rax
  4027ad:	73 65 72 
  4027b0:	48 89 43 30          	mov    %rax,0x30(%rbx)
  4027b4:	c7 43 38 76 65 72 00 	movl   $0x726576,0x38(%rbx)
  4027bb:	89 ef                	mov    %ebp,%edi
  4027bd:	e8 ce e4 ff ff       	callq  400c90 <close@plt>
  4027c2:	b8 ff ff ff ff       	mov    $0xffffffff,%eax
  4027c7:	48 81 c4 58 a0 00 00 	add    $0xa058,%rsp
  4027ce:	5b                   	pop    %rbx
  4027cf:	5d                   	pop    %rbp
  4027d0:	41 5c                	pop    %r12
  4027d2:	41 5d                	pop    %r13
  4027d4:	41 5e                	pop    %r14
  4027d6:	41 5f                	pop    %r15
  4027d8:	c3                   	retq   
  4027d9:	85 c0                	test   %eax,%eax
  4027db:	74 51                	je     40282e <submitr+0x5ee>
  4027dd:	48 8d b4 24 30 60 00 	lea    0x6030(%rsp),%rsi
  4027e4:	00 
  4027e5:	48 8d bc 24 30 80 00 	lea    0x8030(%rsp),%rdi
  4027ec:	00 
  4027ed:	ba 00 20 00 00       	mov    $0x2000,%edx
  4027f2:	e8 ca f9 ff ff       	callq  4021c1 <rio_readlineb>
  4027f7:	48 85 c0             	test   %rax,%rax
  4027fa:	0f 8e 53 ff ff ff    	jle    402753 <submitr+0x513>
  402800:	0f b6 94 24 30 60 00 	movzbl 0x6030(%rsp),%edx
  402807:	00 
  402808:	b8 0d 00 00 00       	mov    $0xd,%eax
  40280d:	29 d0                	sub    %edx,%eax
  40280f:	75 c8                	jne    4027d9 <submitr+0x599>
  402811:	0f b6 94 24 31 60 00 	movzbl 0x6031(%rsp),%edx
  402818:	00 
  402819:	b8 0a 00 00 00       	mov    $0xa,%eax
  40281e:	29 d0                	sub    %edx,%eax
  402820:	75 b7                	jne    4027d9 <submitr+0x599>
  402822:	0f b6 84 24 32 60 00 	movzbl 0x6032(%rsp),%eax
  402829:	00 
  40282a:	f7 d8                	neg    %eax
  40282c:	eb ab                	jmp    4027d9 <submitr+0x599>
  40282e:	48 8d b4 24 30 60 00 	lea    0x6030(%rsp),%rsi
  402835:	00 
  402836:	48 8d bc 24 30 80 00 	lea    0x8030(%rsp),%rdi
  40283d:	00 
  40283e:	ba 00 20 00 00       	mov    $0x2000,%edx
  402843:	e8 79 f9 ff ff       	callq  4021c1 <rio_readlineb>
  402848:	48 85 c0             	test   %rax,%rax
  40284b:	7e 67                	jle    4028b4 <submitr+0x674>
  40284d:	8b 94 24 2c 20 00 00 	mov    0x202c(%rsp),%edx
  402854:	81 fa c8 00 00 00    	cmp    $0xc8,%edx
  40285a:	0f 85 d7 00 00 00    	jne    402937 <submitr+0x6f7>
  402860:	48 8d b4 24 30 60 00 	lea    0x6030(%rsp),%rsi
  402867:	00 
  402868:	48 89 df             	mov    %rbx,%rdi
  40286b:	e8 b0 e3 ff ff       	callq  400c20 <strcpy@plt>
  402870:	89 ef                	mov    %ebp,%edi
  402872:	e8 19 e4 ff ff       	callq  400c90 <close@plt>
  402877:	0f b6 03             	movzbl (%rbx),%eax
  40287a:	ba 4f 00 00 00       	mov    $0x4f,%edx
  40287f:	29 c2                	sub    %eax,%edx
  402881:	0f 85 da 00 00 00    	jne    402961 <submitr+0x721>
  402887:	0f b6 4b 01          	movzbl 0x1(%rbx),%ecx
  40288b:	b8 4b 00 00 00       	mov    $0x4b,%eax
  402890:	29 c8                	sub    %ecx,%eax
  402892:	0f 85 cb 00 00 00    	jne    402963 <submitr+0x723>
  402898:	0f b6 4b 02          	movzbl 0x2(%rbx),%ecx
  40289c:	b8 0a 00 00 00       	mov    $0xa,%eax
  4028a1:	29 c8                	sub    %ecx,%eax
  4028a3:	0f 85 ba 00 00 00    	jne    402963 <submitr+0x723>
  4028a9:	0f b6 43 03          	movzbl 0x3(%rbx),%eax
  4028ad:	f7 d8                	neg    %eax
  4028af:	e9 af 00 00 00       	jmpq   402963 <submitr+0x723>
  4028b4:	48 b8 45 72 72 6f 72 	movabs $0x43203a726f727245,%rax
  4028bb:	3a 20 43 
  4028be:	48 89 03             	mov    %rax,(%rbx)
  4028c1:	48 b8 6c 69 65 6e 74 	movabs $0x6e7520746e65696c,%rax
  4028c8:	20 75 6e 
  4028cb:	48 89 43 08          	mov    %rax,0x8(%rbx)
  4028cf:	48 b8 61 62 6c 65 20 	movabs $0x206f7420656c6261,%rax
  4028d6:	74 6f 20 
  4028d9:	48 89 43 10          	mov    %rax,0x10(%rbx)
  4028dd:	48 b8 72 65 61 64 20 	movabs $0x6174732064616572,%rax
  4028e4:	73 74 61 
  4028e7:	48 89 43 18          	mov    %rax,0x18(%rbx)
  4028eb:	48 b8 74 75 73 20 6d 	movabs $0x7373656d20737574,%rax
  4028f2:	65 73 73 
  4028f5:	48 89 43 20          	mov    %rax,0x20(%rbx)
  4028f9:	48 b8 61 67 65 20 66 	movabs $0x6d6f726620656761,%rax
  402900:	72 6f 6d 
  402903:	48 89 43 28          	mov    %rax,0x28(%rbx)
  402907:	48 b8 20 72 65 73 75 	movabs $0x20746c7573657220,%rax
  40290e:	6c 74 20 
  402911:	48 89 43 30          	mov    %rax,0x30(%rbx)
  402915:	c7 43 38 73 65 72 76 	movl   $0x76726573,0x38(%rbx)
  40291c:	66 c7 43 3c 65 72    	movw   $0x7265,0x3c(%rbx)
  402922:	c6 43 3e 00          	movb   $0x0,0x3e(%rbx)
  402926:	89 ef                	mov    %ebp,%edi
  402928:	e8 63 e3 ff ff       	callq  400c90 <close@plt>
  40292d:	b8 ff ff ff ff       	mov    $0xffffffff,%eax
  402932:	e9 90 fe ff ff       	jmpq   4027c7 <submitr+0x587>
  402937:	48 8d 4c 24 20       	lea    0x20(%rsp),%rcx
  40293c:	48 8d 35 f5 0a 00 00 	lea    0xaf5(%rip),%rsi        # 403438 <trans_char+0x78>
  402943:	48 89 df             	mov    %rbx,%rdi
  402946:	b8 00 00 00 00       	mov    $0x0,%eax
  40294b:	e8 50 e4 ff ff       	callq  400da0 <sprintf@plt>
  402950:	89 ef                	mov    %ebp,%edi
  402952:	e8 39 e3 ff ff       	callq  400c90 <close@plt>
  402957:	b8 ff ff ff ff       	mov    $0xffffffff,%eax
  40295c:	e9 66 fe ff ff       	jmpq   4027c7 <submitr+0x587>
  402961:	89 d0                	mov    %edx,%eax
  402963:	f7 d8                	neg    %eax
  402965:	0f 84 5c fe ff ff    	je     4027c7 <submitr+0x587>
  40296b:	b9 05 00 00 00       	mov    $0x5,%ecx
  402970:	48 8d 3d 09 0b 00 00 	lea    0xb09(%rip),%rdi        # 403480 <trans_char+0xc0>
  402977:	48 89 de             	mov    %rbx,%rsi
  40297a:	f3 a6                	repz cmpsb %es:(%rdi),%ds:(%rsi)
  40297c:	0f 97 c0             	seta   %al
  40297f:	0f 92 c1             	setb   %cl
  402982:	29 c8                	sub    %ecx,%eax
  402984:	0f be c0             	movsbl %al,%eax
  402987:	85 c0                	test   %eax,%eax
  402989:	0f 84 38 fe ff ff    	je     4027c7 <submitr+0x587>
  40298f:	85 d2                	test   %edx,%edx
  402991:	75 13                	jne    4029a6 <submitr+0x766>
  402993:	0f b6 43 01          	movzbl 0x1(%rbx),%eax
  402997:	ba 4b 00 00 00       	mov    $0x4b,%edx
  40299c:	29 c2                	sub    %eax,%edx
  40299e:	75 06                	jne    4029a6 <submitr+0x766>
  4029a0:	0f b6 53 02          	movzbl 0x2(%rbx),%edx
  4029a4:	f7 da                	neg    %edx
  4029a6:	89 d0                	mov    %edx,%eax
  4029a8:	f7 d8                	neg    %eax
  4029aa:	0f 84 17 fe ff ff    	je     4027c7 <submitr+0x587>
  4029b0:	b8 ff ff ff ff       	mov    $0xffffffff,%eax
  4029b5:	e9 0d fe ff ff       	jmpq   4027c7 <submitr+0x587>

00000000004029ba <init_timeout>:
  4029ba:	85 ff                	test   %edi,%edi
  4029bc:	74 20                	je     4029de <init_timeout+0x24>
  4029be:	53                   	push   %rbx
  4029bf:	89 fb                	mov    %edi,%ebx
  4029c1:	85 ff                	test   %edi,%edi
  4029c3:	78 1b                	js     4029e0 <init_timeout+0x26>
  4029c5:	48 8d 35 05 f6 ff ff 	lea    -0x9fb(%rip),%rsi        # 401fd1 <sigalrm_handler>
  4029cc:	bf 0e 00 00 00       	mov    $0xe,%edi
  4029d1:	e8 da e2 ff ff       	callq  400cb0 <signal@plt>
  4029d6:	89 df                	mov    %ebx,%edi
  4029d8:	e8 a3 e2 ff ff       	callq  400c80 <alarm@plt>
  4029dd:	5b                   	pop    %rbx
  4029de:	f3 c3                	repz retq 
  4029e0:	bb 00 00 00 00       	mov    $0x0,%ebx
  4029e5:	eb de                	jmp    4029c5 <init_timeout+0xb>

00000000004029e7 <init_driver>:
  4029e7:	41 54                	push   %r12
  4029e9:	55                   	push   %rbp
  4029ea:	53                   	push   %rbx
  4029eb:	48 83 ec 10          	sub    $0x10,%rsp
  4029ef:	48 89 fd             	mov    %rdi,%rbp
  4029f2:	be 01 00 00 00       	mov    $0x1,%esi
  4029f7:	bf 0d 00 00 00       	mov    $0xd,%edi
  4029fc:	e8 af e2 ff ff       	callq  400cb0 <signal@plt>
  402a01:	be 01 00 00 00       	mov    $0x1,%esi
  402a06:	bf 1d 00 00 00       	mov    $0x1d,%edi
  402a0b:	e8 a0 e2 ff ff       	callq  400cb0 <signal@plt>
  402a10:	be 01 00 00 00       	mov    $0x1,%esi
  402a15:	bf 1d 00 00 00       	mov    $0x1d,%edi
  402a1a:	e8 91 e2 ff ff       	callq  400cb0 <signal@plt>
  402a1f:	ba 00 00 00 00       	mov    $0x0,%edx
  402a24:	be 01 00 00 00       	mov    $0x1,%esi
  402a29:	bf 02 00 00 00       	mov    $0x2,%edi
  402a2e:	e8 9d e3 ff ff       	callq  400dd0 <socket@plt>
  402a33:	85 c0                	test   %eax,%eax
  402a35:	0f 88 80 00 00 00    	js     402abb <init_driver+0xd4>
  402a3b:	89 c3                	mov    %eax,%ebx
  402a3d:	48 8d 3d 41 0a 00 00 	lea    0xa41(%rip),%rdi        # 403485 <trans_char+0xc5>
  402a44:	e8 77 e2 ff ff       	callq  400cc0 <gethostbyname@plt>
  402a49:	48 85 c0             	test   %rax,%rax
  402a4c:	0f 84 b5 00 00 00    	je     402b07 <init_driver+0x120>
  402a52:	48 c7 04 24 00 00 00 	movq   $0x0,(%rsp)
  402a59:	00 
  402a5a:	48 c7 44 24 08 00 00 	movq   $0x0,0x8(%rsp)
  402a61:	00 00 
  402a63:	66 c7 04 24 02 00    	movw   $0x2,(%rsp)
  402a69:	48 8b 48 18          	mov    0x18(%rax),%rcx
  402a6d:	48 63 50 14          	movslq 0x14(%rax),%rdx
  402a71:	48 8d 74 24 04       	lea    0x4(%rsp),%rsi
  402a76:	48 8b 39             	mov    (%rcx),%rdi
  402a79:	e8 d2 e2 ff ff       	callq  400d50 <bcopy@plt>
  402a7e:	66 c7 44 24 02 3c a4 	movw   $0xa43c,0x2(%rsp)
  402a85:	ba 10 00 00 00       	mov    $0x10,%edx
  402a8a:	48 89 e6             	mov    %rsp,%rsi
  402a8d:	89 df                	mov    %ebx,%edi
  402a8f:	e8 2c e3 ff ff       	callq  400dc0 <connect@plt>
  402a94:	85 c0                	test   %eax,%eax
  402a96:	0f 88 d3 00 00 00    	js     402b6f <init_driver+0x188>
  402a9c:	89 df                	mov    %ebx,%edi
  402a9e:	e8 ed e1 ff ff       	callq  400c90 <close@plt>
  402aa3:	66 c7 45 00 4f 4b    	movw   $0x4b4f,0x0(%rbp)
  402aa9:	c6 45 02 00          	movb   $0x0,0x2(%rbp)
  402aad:	b8 00 00 00 00       	mov    $0x0,%eax
  402ab2:	48 83 c4 10          	add    $0x10,%rsp
  402ab6:	5b                   	pop    %rbx
  402ab7:	5d                   	pop    %rbp
  402ab8:	41 5c                	pop    %r12
  402aba:	c3                   	retq   
  402abb:	48 b8 45 72 72 6f 72 	movabs $0x43203a726f727245,%rax
  402ac2:	3a 20 43 
  402ac5:	48 89 45 00          	mov    %rax,0x0(%rbp)
  402ac9:	48 b8 6c 69 65 6e 74 	movabs $0x6e7520746e65696c,%rax
  402ad0:	20 75 6e 
  402ad3:	48 89 45 08          	mov    %rax,0x8(%rbp)
  402ad7:	48 b8 61 62 6c 65 20 	movabs $0x206f7420656c6261,%rax
  402ade:	74 6f 20 
  402ae1:	48 89 45 10          	mov    %rax,0x10(%rbp)
  402ae5:	48 b8 63 72 65 61 74 	movabs $0x7320657461657263,%rax
  402aec:	65 20 73 
  402aef:	48 89 45 18          	mov    %rax,0x18(%rbp)
  402af3:	c7 45 20 6f 63 6b 65 	movl   $0x656b636f,0x20(%rbp)
  402afa:	66 c7 45 24 74 00    	movw   $0x74,0x24(%rbp)
  402b00:	b8 ff ff ff ff       	mov    $0xffffffff,%eax
  402b05:	eb ab                	jmp    402ab2 <init_driver+0xcb>
  402b07:	48 b8 45 72 72 6f 72 	movabs $0x44203a726f727245,%rax
  402b0e:	3a 20 44 
  402b11:	48 89 45 00          	mov    %rax,0x0(%rbp)
  402b15:	48 b8 4e 53 20 69 73 	movabs $0x6e7520736920534e,%rax
  402b1c:	20 75 6e 
  402b1f:	48 89 45 08          	mov    %rax,0x8(%rbp)
  402b23:	48 b8 61 62 6c 65 20 	movabs $0x206f7420656c6261,%rax
  402b2a:	74 6f 20 
  402b2d:	48 89 45 10          	mov    %rax,0x10(%rbp)
  402b31:	48 b8 72 65 73 6f 6c 	movabs $0x2065766c6f736572,%rax
  402b38:	76 65 20 
  402b3b:	48 89 45 18          	mov    %rax,0x18(%rbp)
  402b3f:	48 b8 73 65 72 76 65 	movabs $0x6120726576726573,%rax
  402b46:	72 20 61 
  402b49:	48 89 45 20          	mov    %rax,0x20(%rbp)
  402b4d:	c7 45 28 64 64 72 65 	movl   $0x65726464,0x28(%rbp)
  402b54:	66 c7 45 2c 73 73    	movw   $0x7373,0x2c(%rbp)
  402b5a:	c6 45 2e 00          	movb   $0x0,0x2e(%rbp)
  402b5e:	89 df                	mov    %ebx,%edi
  402b60:	e8 2b e1 ff ff       	callq  400c90 <close@plt>
  402b65:	b8 ff ff ff ff       	mov    $0xffffffff,%eax
  402b6a:	e9 43 ff ff ff       	jmpq   402ab2 <init_driver+0xcb>
  402b6f:	48 b8 45 72 72 6f 72 	movabs $0x55203a726f727245,%rax
  402b76:	3a 20 55 
  402b79:	48 89 45 00          	mov    %rax,0x0(%rbp)
  402b7d:	48 b8 6e 61 62 6c 65 	movabs $0x6f7420656c62616e,%rax
  402b84:	20 74 6f 
  402b87:	48 89 45 08          	mov    %rax,0x8(%rbp)
  402b8b:	48 b8 20 63 6f 6e 6e 	movabs $0x7463656e6e6f6320,%rax
  402b92:	65 63 74 
  402b95:	48 89 45 10          	mov    %rax,0x10(%rbp)
  402b99:	48 b8 20 74 6f 20 73 	movabs $0x76726573206f7420,%rax
  402ba0:	65 72 76 
  402ba3:	48 89 45 18          	mov    %rax,0x18(%rbp)
  402ba7:	66 c7 45 20 65 72    	movw   $0x7265,0x20(%rbp)
  402bad:	c6 45 22 00          	movb   $0x0,0x22(%rbp)
  402bb1:	89 df                	mov    %ebx,%edi
  402bb3:	e8 d8 e0 ff ff       	callq  400c90 <close@plt>
  402bb8:	b8 ff ff ff ff       	mov    $0xffffffff,%eax
  402bbd:	e9 f0 fe ff ff       	jmpq   402ab2 <init_driver+0xcb>

0000000000402bc2 <driver_post>:
  402bc2:	53                   	push   %rbx
  402bc3:	4c 89 cb             	mov    %r9,%rbx
  402bc6:	45 85 c0             	test   %r8d,%r8d
  402bc9:	75 18                	jne    402be3 <driver_post+0x21>
  402bcb:	48 85 ff             	test   %rdi,%rdi
  402bce:	74 05                	je     402bd5 <driver_post+0x13>
  402bd0:	80 3f 00             	cmpb   $0x0,(%rdi)
  402bd3:	75 32                	jne    402c07 <driver_post+0x45>
  402bd5:	66 c7 03 4f 4b       	movw   $0x4b4f,(%rbx)
  402bda:	c6 43 02 00          	movb   $0x0,0x2(%rbx)
  402bde:	44 89 c0             	mov    %r8d,%eax
  402be1:	5b                   	pop    %rbx
  402be2:	c3                   	retq   
  402be3:	48 89 ce             	mov    %rcx,%rsi
  402be6:	48 8d 3d a6 08 00 00 	lea    0x8a6(%rip),%rdi        # 403493 <trans_char+0xd3>
  402bed:	b8 00 00 00 00       	mov    $0x0,%eax
  402bf2:	e8 69 e0 ff ff       	callq  400c60 <printf@plt>
  402bf7:	66 c7 03 4f 4b       	movw   $0x4b4f,(%rbx)
  402bfc:	c6 43 02 00          	movb   $0x0,0x2(%rbx)
  402c00:	b8 00 00 00 00       	mov    $0x0,%eax
  402c05:	eb da                	jmp    402be1 <driver_post+0x1f>
  402c07:	48 83 ec 08          	sub    $0x8,%rsp
  402c0b:	41 51                	push   %r9
  402c0d:	49 89 c9             	mov    %rcx,%r9
  402c10:	49 89 d0             	mov    %rdx,%r8
  402c13:	48 89 f9             	mov    %rdi,%rcx
  402c16:	48 89 f2             	mov    %rsi,%rdx
  402c19:	be a4 3c 00 00       	mov    $0x3ca4,%esi
  402c1e:	48 8d 3d 60 08 00 00 	lea    0x860(%rip),%rdi        # 403485 <trans_char+0xc5>
  402c25:	e8 16 f6 ff ff       	callq  402240 <submitr>
  402c2a:	48 83 c4 10          	add    $0x10,%rsp
  402c2e:	eb b1                	jmp    402be1 <driver_post+0x1f>

0000000000402c30 <check>:
  402c30:	89 f8                	mov    %edi,%eax
  402c32:	c1 e8 1c             	shr    $0x1c,%eax
  402c35:	85 c0                	test   %eax,%eax
  402c37:	74 1d                	je     402c56 <check+0x26>
  402c39:	b9 00 00 00 00       	mov    $0x0,%ecx
  402c3e:	83 f9 1f             	cmp    $0x1f,%ecx
  402c41:	7f 0d                	jg     402c50 <check+0x20>
  402c43:	89 f8                	mov    %edi,%eax
  402c45:	d3 e8                	shr    %cl,%eax
  402c47:	3c 0a                	cmp    $0xa,%al
  402c49:	74 11                	je     402c5c <check+0x2c>
  402c4b:	83 c1 08             	add    $0x8,%ecx
  402c4e:	eb ee                	jmp    402c3e <check+0xe>
  402c50:	b8 01 00 00 00       	mov    $0x1,%eax
  402c55:	c3                   	retq   
  402c56:	b8 00 00 00 00       	mov    $0x0,%eax
  402c5b:	c3                   	retq   
  402c5c:	b8 00 00 00 00       	mov    $0x0,%eax
  402c61:	c3                   	retq   

0000000000402c62 <gencookie>:
  402c62:	53                   	push   %rbx
  402c63:	83 c7 01             	add    $0x1,%edi
  402c66:	e8 95 df ff ff       	callq  400c00 <srandom@plt>
  402c6b:	e8 a0 e0 ff ff       	callq  400d10 <random@plt>
  402c70:	89 c3                	mov    %eax,%ebx
  402c72:	89 c7                	mov    %eax,%edi
  402c74:	e8 b7 ff ff ff       	callq  402c30 <check>
  402c79:	85 c0                	test   %eax,%eax
  402c7b:	74 ee                	je     402c6b <gencookie+0x9>
  402c7d:	89 d8                	mov    %ebx,%eax
  402c7f:	5b                   	pop    %rbx
  402c80:	c3                   	retq   
  402c81:	66 2e 0f 1f 84 00 00 	nopw   %cs:0x0(%rax,%rax,1)
  402c88:	00 00 00 
  402c8b:	0f 1f 44 00 00       	nopl   0x0(%rax,%rax,1)

0000000000402c90 <__libc_csu_init>:
  402c90:	41 57                	push   %r15
  402c92:	41 56                	push   %r14
  402c94:	41 89 ff             	mov    %edi,%r15d
  402c97:	41 55                	push   %r13
  402c99:	41 54                	push   %r12
  402c9b:	4c 8d 25 66 11 20 00 	lea    0x201166(%rip),%r12        # 603e08 <__frame_dummy_init_array_entry>
  402ca2:	55                   	push   %rbp
  402ca3:	48 8d 2d 66 11 20 00 	lea    0x201166(%rip),%rbp        # 603e10 <__init_array_end>
  402caa:	53                   	push   %rbx
  402cab:	49 89 f6             	mov    %rsi,%r14
  402cae:	49 89 d5             	mov    %rdx,%r13
  402cb1:	4c 29 e5             	sub    %r12,%rbp
  402cb4:	48 83 ec 08          	sub    $0x8,%rsp
  402cb8:	48 c1 fd 03          	sar    $0x3,%rbp
  402cbc:	e8 ef de ff ff       	callq  400bb0 <_init>
  402cc1:	48 85 ed             	test   %rbp,%rbp
  402cc4:	74 20                	je     402ce6 <__libc_csu_init+0x56>
  402cc6:	31 db                	xor    %ebx,%ebx
  402cc8:	0f 1f 84 00 00 00 00 	nopl   0x0(%rax,%rax,1)
  402ccf:	00 
  402cd0:	4c 89 ea             	mov    %r13,%rdx
  402cd3:	4c 89 f6             	mov    %r14,%rsi
  402cd6:	44 89 ff             	mov    %r15d,%edi
  402cd9:	41 ff 14 dc          	callq  *(%r12,%rbx,8)
  402cdd:	48 83 c3 01          	add    $0x1,%rbx
  402ce1:	48 39 dd             	cmp    %rbx,%rbp
  402ce4:	75 ea                	jne    402cd0 <__libc_csu_init+0x40>
  402ce6:	48 83 c4 08          	add    $0x8,%rsp
  402cea:	5b                   	pop    %rbx
  402ceb:	5d                   	pop    %rbp
  402cec:	41 5c                	pop    %r12
  402cee:	41 5d                	pop    %r13
  402cf0:	41 5e                	pop    %r14
  402cf2:	41 5f                	pop    %r15
  402cf4:	c3                   	retq   
  402cf5:	90                   	nop
  402cf6:	66 2e 0f 1f 84 00 00 	nopw   %cs:0x0(%rax,%rax,1)
  402cfd:	00 00 00 

0000000000402d00 <__libc_csu_fini>:
  402d00:	f3 c3                	repz retq 

Disassembly of section .fini:

0000000000402d04 <_fini>:
  402d04:	48 83 ec 08          	sub    $0x8,%rsp
  402d08:	48 83 c4 08          	add    $0x8,%rsp
  402d0c:	c3                   	retq   
