
rtarget:     file format elf64-x86-64


Disassembly of section .init:

0000000000400bb0 <_init>:
  400bb0:	48 83 ec 08          	sub    $0x8,%rsp
  400bb4:	48 8b 05 3d 44 20 00 	mov    0x20443d(%rip),%rax        # 604ff8 <__gmon_start__>
  400bbb:	48 85 c0             	test   %rax,%rax
  400bbe:	74 02                	je     400bc2 <_init+0x12>
  400bc0:	ff d0                	callq  *%rax
  400bc2:	48 83 c4 08          	add    $0x8,%rsp
  400bc6:	c3                   	retq   

Disassembly of section .plt:

0000000000400bd0 <.plt>:
  400bd0:	ff 35 32 44 20 00    	pushq  0x204432(%rip)        # 605008 <_GLOBAL_OFFSET_TABLE_+0x8>
  400bd6:	ff 25 34 44 20 00    	jmpq   *0x204434(%rip)        # 605010 <_GLOBAL_OFFSET_TABLE_+0x10>
  400bdc:	0f 1f 40 00          	nopl   0x0(%rax)

0000000000400be0 <strcasecmp@plt>:
  400be0:	ff 25 32 44 20 00    	jmpq   *0x204432(%rip)        # 605018 <strcasecmp@GLIBC_2.2.5>
  400be6:	68 00 00 00 00       	pushq  $0x0
  400beb:	e9 e0 ff ff ff       	jmpq   400bd0 <.plt>

0000000000400bf0 <__errno_location@plt>:
  400bf0:	ff 25 2a 44 20 00    	jmpq   *0x20442a(%rip)        # 605020 <__errno_location@GLIBC_2.2.5>
  400bf6:	68 01 00 00 00       	pushq  $0x1
  400bfb:	e9 d0 ff ff ff       	jmpq   400bd0 <.plt>

0000000000400c00 <srandom@plt>:
  400c00:	ff 25 22 44 20 00    	jmpq   *0x204422(%rip)        # 605028 <srandom@GLIBC_2.2.5>
  400c06:	68 02 00 00 00       	pushq  $0x2
  400c0b:	e9 c0 ff ff ff       	jmpq   400bd0 <.plt>

0000000000400c10 <strncmp@plt>:
  400c10:	ff 25 1a 44 20 00    	jmpq   *0x20441a(%rip)        # 605030 <strncmp@GLIBC_2.2.5>
  400c16:	68 03 00 00 00       	pushq  $0x3
  400c1b:	e9 b0 ff ff ff       	jmpq   400bd0 <.plt>

0000000000400c20 <strcpy@plt>:
  400c20:	ff 25 12 44 20 00    	jmpq   *0x204412(%rip)        # 605038 <strcpy@GLIBC_2.2.5>
  400c26:	68 04 00 00 00       	pushq  $0x4
  400c2b:	e9 a0 ff ff ff       	jmpq   400bd0 <.plt>

0000000000400c30 <puts@plt>:
  400c30:	ff 25 0a 44 20 00    	jmpq   *0x20440a(%rip)        # 605040 <puts@GLIBC_2.2.5>
  400c36:	68 05 00 00 00       	pushq  $0x5
  400c3b:	e9 90 ff ff ff       	jmpq   400bd0 <.plt>

0000000000400c40 <write@plt>:
  400c40:	ff 25 02 44 20 00    	jmpq   *0x204402(%rip)        # 605048 <write@GLIBC_2.2.5>
  400c46:	68 06 00 00 00       	pushq  $0x6
  400c4b:	e9 80 ff ff ff       	jmpq   400bd0 <.plt>

0000000000400c50 <mmap@plt>:
  400c50:	ff 25 fa 43 20 00    	jmpq   *0x2043fa(%rip)        # 605050 <mmap@GLIBC_2.2.5>
  400c56:	68 07 00 00 00       	pushq  $0x7
  400c5b:	e9 70 ff ff ff       	jmpq   400bd0 <.plt>

0000000000400c60 <printf@plt>:
  400c60:	ff 25 f2 43 20 00    	jmpq   *0x2043f2(%rip)        # 605058 <printf@GLIBC_2.2.5>
  400c66:	68 08 00 00 00       	pushq  $0x8
  400c6b:	e9 60 ff ff ff       	jmpq   400bd0 <.plt>

0000000000400c70 <memset@plt>:
  400c70:	ff 25 ea 43 20 00    	jmpq   *0x2043ea(%rip)        # 605060 <memset@GLIBC_2.2.5>
  400c76:	68 09 00 00 00       	pushq  $0x9
  400c7b:	e9 50 ff ff ff       	jmpq   400bd0 <.plt>

0000000000400c80 <alarm@plt>:
  400c80:	ff 25 e2 43 20 00    	jmpq   *0x2043e2(%rip)        # 605068 <alarm@GLIBC_2.2.5>
  400c86:	68 0a 00 00 00       	pushq  $0xa
  400c8b:	e9 40 ff ff ff       	jmpq   400bd0 <.plt>

0000000000400c90 <close@plt>:
  400c90:	ff 25 da 43 20 00    	jmpq   *0x2043da(%rip)        # 605070 <close@GLIBC_2.2.5>
  400c96:	68 0b 00 00 00       	pushq  $0xb
  400c9b:	e9 30 ff ff ff       	jmpq   400bd0 <.plt>

0000000000400ca0 <read@plt>:
  400ca0:	ff 25 d2 43 20 00    	jmpq   *0x2043d2(%rip)        # 605078 <read@GLIBC_2.2.5>
  400ca6:	68 0c 00 00 00       	pushq  $0xc
  400cab:	e9 20 ff ff ff       	jmpq   400bd0 <.plt>

0000000000400cb0 <signal@plt>:
  400cb0:	ff 25 ca 43 20 00    	jmpq   *0x2043ca(%rip)        # 605080 <signal@GLIBC_2.2.5>
  400cb6:	68 0d 00 00 00       	pushq  $0xd
  400cbb:	e9 10 ff ff ff       	jmpq   400bd0 <.plt>

0000000000400cc0 <gethostbyname@plt>:
  400cc0:	ff 25 c2 43 20 00    	jmpq   *0x2043c2(%rip)        # 605088 <gethostbyname@GLIBC_2.2.5>
  400cc6:	68 0e 00 00 00       	pushq  $0xe
  400ccb:	e9 00 ff ff ff       	jmpq   400bd0 <.plt>

0000000000400cd0 <fprintf@plt>:
  400cd0:	ff 25 ba 43 20 00    	jmpq   *0x2043ba(%rip)        # 605090 <fprintf@GLIBC_2.2.5>
  400cd6:	68 0f 00 00 00       	pushq  $0xf
  400cdb:	e9 f0 fe ff ff       	jmpq   400bd0 <.plt>

0000000000400ce0 <strtol@plt>:
  400ce0:	ff 25 b2 43 20 00    	jmpq   *0x2043b2(%rip)        # 605098 <strtol@GLIBC_2.2.5>
  400ce6:	68 10 00 00 00       	pushq  $0x10
  400ceb:	e9 e0 fe ff ff       	jmpq   400bd0 <.plt>

0000000000400cf0 <memcpy@plt>:
  400cf0:	ff 25 aa 43 20 00    	jmpq   *0x2043aa(%rip)        # 6050a0 <memcpy@GLIBC_2.14>
  400cf6:	68 11 00 00 00       	pushq  $0x11
  400cfb:	e9 d0 fe ff ff       	jmpq   400bd0 <.plt>

0000000000400d00 <time@plt>:
  400d00:	ff 25 a2 43 20 00    	jmpq   *0x2043a2(%rip)        # 6050a8 <time@GLIBC_2.2.5>
  400d06:	68 12 00 00 00       	pushq  $0x12
  400d0b:	e9 c0 fe ff ff       	jmpq   400bd0 <.plt>

0000000000400d10 <random@plt>:
  400d10:	ff 25 9a 43 20 00    	jmpq   *0x20439a(%rip)        # 6050b0 <random@GLIBC_2.2.5>
  400d16:	68 13 00 00 00       	pushq  $0x13
  400d1b:	e9 b0 fe ff ff       	jmpq   400bd0 <.plt>

0000000000400d20 <_IO_getc@plt>:
  400d20:	ff 25 92 43 20 00    	jmpq   *0x204392(%rip)        # 6050b8 <_IO_getc@GLIBC_2.2.5>
  400d26:	68 14 00 00 00       	pushq  $0x14
  400d2b:	e9 a0 fe ff ff       	jmpq   400bd0 <.plt>

0000000000400d30 <__isoc99_sscanf@plt>:
  400d30:	ff 25 8a 43 20 00    	jmpq   *0x20438a(%rip)        # 6050c0 <__isoc99_sscanf@GLIBC_2.7>
  400d36:	68 15 00 00 00       	pushq  $0x15
  400d3b:	e9 90 fe ff ff       	jmpq   400bd0 <.plt>

0000000000400d40 <munmap@plt>:
  400d40:	ff 25 82 43 20 00    	jmpq   *0x204382(%rip)        # 6050c8 <munmap@GLIBC_2.2.5>
  400d46:	68 16 00 00 00       	pushq  $0x16
  400d4b:	e9 80 fe ff ff       	jmpq   400bd0 <.plt>

0000000000400d50 <bcopy@plt>:
  400d50:	ff 25 7a 43 20 00    	jmpq   *0x20437a(%rip)        # 6050d0 <bcopy@GLIBC_2.2.5>
  400d56:	68 17 00 00 00       	pushq  $0x17
  400d5b:	e9 70 fe ff ff       	jmpq   400bd0 <.plt>

0000000000400d60 <fopen@plt>:
  400d60:	ff 25 72 43 20 00    	jmpq   *0x204372(%rip)        # 6050d8 <fopen@GLIBC_2.2.5>
  400d66:	68 18 00 00 00       	pushq  $0x18
  400d6b:	e9 60 fe ff ff       	jmpq   400bd0 <.plt>

0000000000400d70 <getopt@plt>:
  400d70:	ff 25 6a 43 20 00    	jmpq   *0x20436a(%rip)        # 6050e0 <getopt@GLIBC_2.2.5>
  400d76:	68 19 00 00 00       	pushq  $0x19
  400d7b:	e9 50 fe ff ff       	jmpq   400bd0 <.plt>

0000000000400d80 <strtoul@plt>:
  400d80:	ff 25 62 43 20 00    	jmpq   *0x204362(%rip)        # 6050e8 <strtoul@GLIBC_2.2.5>
  400d86:	68 1a 00 00 00       	pushq  $0x1a
  400d8b:	e9 40 fe ff ff       	jmpq   400bd0 <.plt>

0000000000400d90 <gethostname@plt>:
  400d90:	ff 25 5a 43 20 00    	jmpq   *0x20435a(%rip)        # 6050f0 <gethostname@GLIBC_2.2.5>
  400d96:	68 1b 00 00 00       	pushq  $0x1b
  400d9b:	e9 30 fe ff ff       	jmpq   400bd0 <.plt>

0000000000400da0 <sprintf@plt>:
  400da0:	ff 25 52 43 20 00    	jmpq   *0x204352(%rip)        # 6050f8 <sprintf@GLIBC_2.2.5>
  400da6:	68 1c 00 00 00       	pushq  $0x1c
  400dab:	e9 20 fe ff ff       	jmpq   400bd0 <.plt>

0000000000400db0 <exit@plt>:
  400db0:	ff 25 4a 43 20 00    	jmpq   *0x20434a(%rip)        # 605100 <exit@GLIBC_2.2.5>
  400db6:	68 1d 00 00 00       	pushq  $0x1d
  400dbb:	e9 10 fe ff ff       	jmpq   400bd0 <.plt>

0000000000400dc0 <connect@plt>:
  400dc0:	ff 25 42 43 20 00    	jmpq   *0x204342(%rip)        # 605108 <connect@GLIBC_2.2.5>
  400dc6:	68 1e 00 00 00       	pushq  $0x1e
  400dcb:	e9 00 fe ff ff       	jmpq   400bd0 <.plt>

0000000000400dd0 <socket@plt>:
  400dd0:	ff 25 3a 43 20 00    	jmpq   *0x20433a(%rip)        # 605110 <socket@GLIBC_2.2.5>
  400dd6:	68 1f 00 00 00       	pushq  $0x1f
  400ddb:	e9 f0 fd ff ff       	jmpq   400bd0 <.plt>

Disassembly of section .text:

0000000000400de0 <_start>:
  400de0:	31 ed                	xor    %ebp,%ebp
  400de2:	49 89 d1             	mov    %rdx,%r9
  400de5:	5e                   	pop    %rsi
  400de6:	48 89 e2             	mov    %rsp,%rdx
  400de9:	48 83 e4 f0          	and    $0xfffffffffffffff0,%rsp
  400ded:	50                   	push   %rax
  400dee:	54                   	push   %rsp
  400def:	49 c7 c0 20 2e 40 00 	mov    $0x402e20,%r8
  400df6:	48 c7 c1 b0 2d 40 00 	mov    $0x402db0,%rcx
  400dfd:	48 c7 c7 8d 10 40 00 	mov    $0x40108d,%rdi
  400e04:	ff 15 e6 41 20 00    	callq  *0x2041e6(%rip)        # 604ff0 <__libc_start_main@GLIBC_2.2.5>
  400e0a:	f4                   	hlt    
  400e0b:	0f 1f 44 00 00       	nopl   0x0(%rax,%rax,1)

0000000000400e10 <deregister_tm_clones>:
  400e10:	b8 97 54 60 00       	mov    $0x605497,%eax
  400e15:	55                   	push   %rbp
  400e16:	48 2d 90 54 60 00    	sub    $0x605490,%rax
  400e1c:	48 83 f8 0e          	cmp    $0xe,%rax
  400e20:	48 89 e5             	mov    %rsp,%rbp
  400e23:	76 1b                	jbe    400e40 <deregister_tm_clones+0x30>
  400e25:	b8 00 00 00 00       	mov    $0x0,%eax
  400e2a:	48 85 c0             	test   %rax,%rax
  400e2d:	74 11                	je     400e40 <deregister_tm_clones+0x30>
  400e2f:	5d                   	pop    %rbp
  400e30:	bf 90 54 60 00       	mov    $0x605490,%edi
  400e35:	ff e0                	jmpq   *%rax
  400e37:	66 0f 1f 84 00 00 00 	nopw   0x0(%rax,%rax,1)
  400e3e:	00 00 
  400e40:	5d                   	pop    %rbp
  400e41:	c3                   	retq   
  400e42:	0f 1f 40 00          	nopl   0x0(%rax)
  400e46:	66 2e 0f 1f 84 00 00 	nopw   %cs:0x0(%rax,%rax,1)
  400e4d:	00 00 00 

0000000000400e50 <register_tm_clones>:
  400e50:	be 90 54 60 00       	mov    $0x605490,%esi
  400e55:	55                   	push   %rbp
  400e56:	48 81 ee 90 54 60 00 	sub    $0x605490,%rsi
  400e5d:	48 c1 fe 03          	sar    $0x3,%rsi
  400e61:	48 89 e5             	mov    %rsp,%rbp
  400e64:	48 89 f0             	mov    %rsi,%rax
  400e67:	48 c1 e8 3f          	shr    $0x3f,%rax
  400e6b:	48 01 c6             	add    %rax,%rsi
  400e6e:	48 d1 fe             	sar    %rsi
  400e71:	74 15                	je     400e88 <register_tm_clones+0x38>
  400e73:	b8 00 00 00 00       	mov    $0x0,%eax
  400e78:	48 85 c0             	test   %rax,%rax
  400e7b:	74 0b                	je     400e88 <register_tm_clones+0x38>
  400e7d:	5d                   	pop    %rbp
  400e7e:	bf 90 54 60 00       	mov    $0x605490,%edi
  400e83:	ff e0                	jmpq   *%rax
  400e85:	0f 1f 00             	nopl   (%rax)
  400e88:	5d                   	pop    %rbp
  400e89:	c3                   	retq   
  400e8a:	66 0f 1f 44 00 00    	nopw   0x0(%rax,%rax,1)

0000000000400e90 <__do_global_dtors_aux>:
  400e90:	80 3d 31 46 20 00 00 	cmpb   $0x0,0x204631(%rip)        # 6054c8 <completed.6972>
  400e97:	75 11                	jne    400eaa <__do_global_dtors_aux+0x1a>
  400e99:	55                   	push   %rbp
  400e9a:	48 89 e5             	mov    %rsp,%rbp
  400e9d:	e8 6e ff ff ff       	callq  400e10 <deregister_tm_clones>
  400ea2:	5d                   	pop    %rbp
  400ea3:	c6 05 1e 46 20 00 01 	movb   $0x1,0x20461e(%rip)        # 6054c8 <completed.6972>
  400eaa:	f3 c3                	repz retq 
  400eac:	0f 1f 40 00          	nopl   0x0(%rax)

0000000000400eb0 <frame_dummy>:
  400eb0:	bf 18 4e 60 00       	mov    $0x604e18,%edi
  400eb5:	48 83 3f 00          	cmpq   $0x0,(%rdi)
  400eb9:	75 05                	jne    400ec0 <frame_dummy+0x10>
  400ebb:	eb 93                	jmp    400e50 <register_tm_clones>
  400ebd:	0f 1f 00             	nopl   (%rax)
  400ec0:	b8 00 00 00 00       	mov    $0x0,%eax
  400ec5:	48 85 c0             	test   %rax,%rax
  400ec8:	74 f1                	je     400ebb <frame_dummy+0xb>
  400eca:	55                   	push   %rbp
  400ecb:	48 89 e5             	mov    %rsp,%rbp
  400ece:	ff d0                	callq  *%rax
  400ed0:	5d                   	pop    %rbp
  400ed1:	e9 7a ff ff ff       	jmpq   400e50 <register_tm_clones>

0000000000400ed6 <usage>:
  400ed6:	48 83 ec 08          	sub    $0x8,%rsp
  400eda:	48 89 fe             	mov    %rdi,%rsi
  400edd:	83 3d 24 46 20 00 00 	cmpl   $0x0,0x204624(%rip)        # 605508 <is_checker>
  400ee4:	74 4b                	je     400f31 <usage+0x5b>
  400ee6:	48 8d 3d 4b 1f 00 00 	lea    0x1f4b(%rip),%rdi        # 402e38 <_IO_stdin_used+0x8>
  400eed:	b8 00 00 00 00       	mov    $0x0,%eax
  400ef2:	e8 69 fd ff ff       	callq  400c60 <printf@plt>
  400ef7:	48 8d 3d 72 1f 00 00 	lea    0x1f72(%rip),%rdi        # 402e70 <_IO_stdin_used+0x40>
  400efe:	e8 2d fd ff ff       	callq  400c30 <puts@plt>
  400f03:	48 8d 3d 9e 20 00 00 	lea    0x209e(%rip),%rdi        # 402fa8 <_IO_stdin_used+0x178>
  400f0a:	e8 21 fd ff ff       	callq  400c30 <puts@plt>
  400f0f:	48 8d 3d 82 1f 00 00 	lea    0x1f82(%rip),%rdi        # 402e98 <_IO_stdin_used+0x68>
  400f16:	e8 15 fd ff ff       	callq  400c30 <puts@plt>
  400f1b:	48 8d 3d a0 20 00 00 	lea    0x20a0(%rip),%rdi        # 402fc2 <_IO_stdin_used+0x192>
  400f22:	e8 09 fd ff ff       	callq  400c30 <puts@plt>
  400f27:	bf 00 00 00 00       	mov    $0x0,%edi
  400f2c:	e8 7f fe ff ff       	callq  400db0 <exit@plt>
  400f31:	48 8d 3d a6 20 00 00 	lea    0x20a6(%rip),%rdi        # 402fde <_IO_stdin_used+0x1ae>
  400f38:	b8 00 00 00 00       	mov    $0x0,%eax
  400f3d:	e8 1e fd ff ff       	callq  400c60 <printf@plt>
  400f42:	48 8d 3d 77 1f 00 00 	lea    0x1f77(%rip),%rdi        # 402ec0 <_IO_stdin_used+0x90>
  400f49:	e8 e2 fc ff ff       	callq  400c30 <puts@plt>
  400f4e:	48 8d 3d 93 1f 00 00 	lea    0x1f93(%rip),%rdi        # 402ee8 <_IO_stdin_used+0xb8>
  400f55:	e8 d6 fc ff ff       	callq  400c30 <puts@plt>
  400f5a:	48 8d 3d 9b 20 00 00 	lea    0x209b(%rip),%rdi        # 402ffc <_IO_stdin_used+0x1cc>
  400f61:	e8 ca fc ff ff       	callq  400c30 <puts@plt>
  400f66:	eb bf                	jmp    400f27 <usage+0x51>

0000000000400f68 <initialize_target>:
  400f68:	55                   	push   %rbp
  400f69:	53                   	push   %rbx
  400f6a:	48 81 ec 08 21 00 00 	sub    $0x2108,%rsp
  400f71:	89 f5                	mov    %esi,%ebp
  400f73:	89 3d 7f 45 20 00    	mov    %edi,0x20457f(%rip)        # 6054f8 <check_level>
  400f79:	8b 3d b1 41 20 00    	mov    0x2041b1(%rip),%edi        # 605130 <target_id>
  400f7f:	e8 00 1e 00 00       	callq  402d84 <gencookie>
  400f84:	89 05 7a 45 20 00    	mov    %eax,0x20457a(%rip)        # 605504 <cookie>
  400f8a:	89 c7                	mov    %eax,%edi
  400f8c:	e8 f3 1d 00 00       	callq  402d84 <gencookie>
  400f91:	89 05 69 45 20 00    	mov    %eax,0x204569(%rip)        # 605500 <authkey>
  400f97:	8b 05 93 41 20 00    	mov    0x204193(%rip),%eax        # 605130 <target_id>
  400f9d:	8d 78 01             	lea    0x1(%rax),%edi
  400fa0:	e8 5b fc ff ff       	callq  400c00 <srandom@plt>
  400fa5:	e8 66 fd ff ff       	callq  400d10 <random@plt>
  400faa:	89 c7                	mov    %eax,%edi
  400fac:	e8 c3 02 00 00       	callq  401274 <scramble>
  400fb1:	89 c3                	mov    %eax,%ebx
  400fb3:	85 ed                	test   %ebp,%ebp
  400fb5:	75 3d                	jne    400ff4 <initialize_target+0x8c>
  400fb7:	b8 00 00 00 00       	mov    $0x0,%eax
  400fbc:	01 d8                	add    %ebx,%eax
  400fbe:	0f b7 c0             	movzwl %ax,%eax
  400fc1:	8d 04 c5 00 01 00 00 	lea    0x100(,%rax,8),%eax
  400fc8:	89 c0                	mov    %eax,%eax
  400fca:	48 89 05 af 44 20 00 	mov    %rax,0x2044af(%rip)        # 605480 <buf_offset>
  400fd1:	c6 05 50 51 20 00 72 	movb   $0x72,0x205150(%rip)        # 606128 <target_prefix>
  400fd8:	83 3d a9 44 20 00 00 	cmpl   $0x0,0x2044a9(%rip)        # 605488 <notify>
  400fdf:	74 09                	je     400fea <initialize_target+0x82>
  400fe1:	83 3d 20 45 20 00 00 	cmpl   $0x0,0x204520(%rip)        # 605508 <is_checker>
  400fe8:	74 22                	je     40100c <initialize_target+0xa4>
  400fea:	48 81 c4 08 21 00 00 	add    $0x2108,%rsp
  400ff1:	5b                   	pop    %rbx
  400ff2:	5d                   	pop    %rbp
  400ff3:	c3                   	retq   
  400ff4:	bf 00 00 00 00       	mov    $0x0,%edi
  400ff9:	e8 02 fd ff ff       	callq  400d00 <time@plt>
  400ffe:	89 c7                	mov    %eax,%edi
  401000:	e8 fb fb ff ff       	callq  400c00 <srandom@plt>
  401005:	e8 06 fd ff ff       	callq  400d10 <random@plt>
  40100a:	eb b0                	jmp    400fbc <initialize_target+0x54>
  40100c:	48 89 e7             	mov    %rsp,%rdi
  40100f:	be 00 01 00 00       	mov    $0x100,%esi
  401014:	e8 77 fd ff ff       	callq  400d90 <gethostname@plt>
  401019:	89 c3                	mov    %eax,%ebx
  40101b:	85 c0                	test   %eax,%eax
  40101d:	75 24                	jne    401043 <initialize_target+0xdb>
  40101f:	48 63 c3             	movslq %ebx,%rax
  401022:	48 8d 15 37 41 20 00 	lea    0x204137(%rip),%rdx        # 605160 <host_table>
  401029:	48 8b 3c c2          	mov    (%rdx,%rax,8),%rdi
  40102d:	48 85 ff             	test   %rdi,%rdi
  401030:	74 27                	je     401059 <initialize_target+0xf1>
  401032:	48 89 e6             	mov    %rsp,%rsi
  401035:	e8 a6 fb ff ff       	callq  400be0 <strcasecmp@plt>
  40103a:	85 c0                	test   %eax,%eax
  40103c:	74 1b                	je     401059 <initialize_target+0xf1>
  40103e:	83 c3 01             	add    $0x1,%ebx
  401041:	eb dc                	jmp    40101f <initialize_target+0xb7>
  401043:	48 8d 3d ce 1e 00 00 	lea    0x1ece(%rip),%rdi        # 402f18 <_IO_stdin_used+0xe8>
  40104a:	e8 e1 fb ff ff       	callq  400c30 <puts@plt>
  40104f:	bf 08 00 00 00       	mov    $0x8,%edi
  401054:	e8 57 fd ff ff       	callq  400db0 <exit@plt>
  401059:	48 8d bc 24 00 01 00 	lea    0x100(%rsp),%rdi
  401060:	00 
  401061:	e8 a3 1a 00 00       	callq  402b09 <init_driver>
  401066:	85 c0                	test   %eax,%eax
  401068:	79 80                	jns    400fea <initialize_target+0x82>
  40106a:	48 8d b4 24 00 01 00 	lea    0x100(%rsp),%rsi
  401071:	00 
  401072:	48 8d 3d d7 1e 00 00 	lea    0x1ed7(%rip),%rdi        # 402f50 <_IO_stdin_used+0x120>
  401079:	b8 00 00 00 00       	mov    $0x0,%eax
  40107e:	e8 dd fb ff ff       	callq  400c60 <printf@plt>
  401083:	bf 08 00 00 00       	mov    $0x8,%edi
  401088:	e8 23 fd ff ff       	callq  400db0 <exit@plt>

000000000040108d <main>:
  40108d:	41 56                	push   %r14
  40108f:	41 55                	push   %r13
  401091:	41 54                	push   %r12
  401093:	55                   	push   %rbp
  401094:	53                   	push   %rbx
  401095:	41 89 fc             	mov    %edi,%r12d
  401098:	48 89 f3             	mov    %rsi,%rbx
  40109b:	48 c7 c6 af 1e 40 00 	mov    $0x401eaf,%rsi
  4010a2:	bf 0b 00 00 00       	mov    $0xb,%edi
  4010a7:	e8 04 fc ff ff       	callq  400cb0 <signal@plt>
  4010ac:	48 c7 c6 5b 1e 40 00 	mov    $0x401e5b,%rsi
  4010b3:	bf 07 00 00 00       	mov    $0x7,%edi
  4010b8:	e8 f3 fb ff ff       	callq  400cb0 <signal@plt>
  4010bd:	48 c7 c6 03 1f 40 00 	mov    $0x401f03,%rsi
  4010c4:	bf 04 00 00 00       	mov    $0x4,%edi
  4010c9:	e8 e2 fb ff ff       	callq  400cb0 <signal@plt>
  4010ce:	83 3d 33 44 20 00 00 	cmpl   $0x0,0x204433(%rip)        # 605508 <is_checker>
  4010d5:	75 58                	jne    40112f <main+0xa2>
  4010d7:	48 8d 2d 37 1f 00 00 	lea    0x1f37(%rip),%rbp        # 403015 <_IO_stdin_used+0x1e5>
  4010de:	48 8b 05 bb 43 20 00 	mov    0x2043bb(%rip),%rax        # 6054a0 <stdin@@GLIBC_2.2.5>
  4010e5:	48 89 05 04 44 20 00 	mov    %rax,0x204404(%rip)        # 6054f0 <infile>
  4010ec:	41 bd 00 00 00 00    	mov    $0x0,%r13d
  4010f2:	41 be 00 00 00 00    	mov    $0x0,%r14d
  4010f8:	48 89 ea             	mov    %rbp,%rdx
  4010fb:	48 89 de             	mov    %rbx,%rsi
  4010fe:	44 89 e7             	mov    %r12d,%edi
  401101:	e8 6a fc ff ff       	callq  400d70 <getopt@plt>
  401106:	3c ff                	cmp    $0xff,%al
  401108:	0f 84 f8 00 00 00    	je     401206 <main+0x179>
  40110e:	0f be f0             	movsbl %al,%esi
  401111:	83 e8 61             	sub    $0x61,%eax
  401114:	3c 10                	cmp    $0x10,%al
  401116:	0f 87 d1 00 00 00    	ja     4011ed <main+0x160>
  40111c:	0f b6 c0             	movzbl %al,%eax
  40111f:	48 8d 15 3a 1f 00 00 	lea    0x1f3a(%rip),%rdx        # 403060 <_IO_stdin_used+0x230>
  401126:	48 63 04 82          	movslq (%rdx,%rax,4),%rax
  40112a:	48 01 d0             	add    %rdx,%rax
  40112d:	ff e0                	jmpq   *%rax
  40112f:	48 c7 c6 57 1f 40 00 	mov    $0x401f57,%rsi
  401136:	bf 0e 00 00 00       	mov    $0xe,%edi
  40113b:	e8 70 fb ff ff       	callq  400cb0 <signal@plt>
  401140:	bf 05 00 00 00       	mov    $0x5,%edi
  401145:	e8 36 fb ff ff       	callq  400c80 <alarm@plt>
  40114a:	48 8d 2d c9 1e 00 00 	lea    0x1ec9(%rip),%rbp        # 40301a <_IO_stdin_used+0x1ea>
  401151:	eb 8b                	jmp    4010de <main+0x51>
  401153:	48 8b 3b             	mov    (%rbx),%rdi
  401156:	e8 7b fd ff ff       	callq  400ed6 <usage>
  40115b:	48 8d 35 43 21 00 00 	lea    0x2143(%rip),%rsi        # 4032a5 <_IO_stdin_used+0x475>
  401162:	48 8b 3d 3f 43 20 00 	mov    0x20433f(%rip),%rdi        # 6054a8 <optarg@@GLIBC_2.2.5>
  401169:	e8 f2 fb ff ff       	callq  400d60 <fopen@plt>
  40116e:	48 89 05 7b 43 20 00 	mov    %rax,0x20437b(%rip)        # 6054f0 <infile>
  401175:	48 85 c0             	test   %rax,%rax
  401178:	0f 85 7a ff ff ff    	jne    4010f8 <main+0x6b>
  40117e:	48 8b 15 23 43 20 00 	mov    0x204323(%rip),%rdx        # 6054a8 <optarg@@GLIBC_2.2.5>
  401185:	48 8d 35 96 1e 00 00 	lea    0x1e96(%rip),%rsi        # 403022 <_IO_stdin_used+0x1f2>
  40118c:	48 8b 3d 2d 43 20 00 	mov    0x20432d(%rip),%rdi        # 6054c0 <stderr@@GLIBC_2.2.5>
  401193:	e8 38 fb ff ff       	callq  400cd0 <fprintf@plt>
  401198:	b8 01 00 00 00       	mov    $0x1,%eax
  40119d:	e9 c9 00 00 00       	jmpq   40126b <main+0x1de>
  4011a2:	ba 10 00 00 00       	mov    $0x10,%edx
  4011a7:	be 00 00 00 00       	mov    $0x0,%esi
  4011ac:	48 8b 3d f5 42 20 00 	mov    0x2042f5(%rip),%rdi        # 6054a8 <optarg@@GLIBC_2.2.5>
  4011b3:	e8 c8 fb ff ff       	callq  400d80 <strtoul@plt>
  4011b8:	41 89 c6             	mov    %eax,%r14d
  4011bb:	e9 38 ff ff ff       	jmpq   4010f8 <main+0x6b>
  4011c0:	ba 0a 00 00 00       	mov    $0xa,%edx
  4011c5:	be 00 00 00 00       	mov    $0x0,%esi
  4011ca:	48 8b 3d d7 42 20 00 	mov    0x2042d7(%rip),%rdi        # 6054a8 <optarg@@GLIBC_2.2.5>
  4011d1:	e8 0a fb ff ff       	callq  400ce0 <strtol@plt>
  4011d6:	41 89 c5             	mov    %eax,%r13d
  4011d9:	e9 1a ff ff ff       	jmpq   4010f8 <main+0x6b>
  4011de:	c7 05 a0 42 20 00 00 	movl   $0x0,0x2042a0(%rip)        # 605488 <notify>
  4011e5:	00 00 00 
  4011e8:	e9 0b ff ff ff       	jmpq   4010f8 <main+0x6b>
  4011ed:	48 8d 3d 4b 1e 00 00 	lea    0x1e4b(%rip),%rdi        # 40303f <_IO_stdin_used+0x20f>
  4011f4:	b8 00 00 00 00       	mov    $0x0,%eax
  4011f9:	e8 62 fa ff ff       	callq  400c60 <printf@plt>
  4011fe:	48 8b 3b             	mov    (%rbx),%rdi
  401201:	e8 d0 fc ff ff       	callq  400ed6 <usage>
  401206:	be 01 00 00 00       	mov    $0x1,%esi
  40120b:	44 89 ef             	mov    %r13d,%edi
  40120e:	e8 55 fd ff ff       	callq  400f68 <initialize_target>
  401213:	83 3d ee 42 20 00 00 	cmpl   $0x0,0x2042ee(%rip)        # 605508 <is_checker>
  40121a:	74 27                	je     401243 <main+0x1b6>
  40121c:	44 3b 35 dd 42 20 00 	cmp    0x2042dd(%rip),%r14d        # 605500 <authkey>
  401223:	74 1e                	je     401243 <main+0x1b6>
  401225:	44 89 f6             	mov    %r14d,%esi
  401228:	48 8d 3d 49 1d 00 00 	lea    0x1d49(%rip),%rdi        # 402f78 <_IO_stdin_used+0x148>
  40122f:	b8 00 00 00 00       	mov    $0x0,%eax
  401234:	e8 27 fa ff ff       	callq  400c60 <printf@plt>
  401239:	b8 00 00 00 00       	mov    $0x0,%eax
  40123e:	e8 e8 08 00 00       	callq  401b2b <check_fail>
  401243:	8b 35 bb 42 20 00    	mov    0x2042bb(%rip),%esi        # 605504 <cookie>
  401249:	48 8d 3d 02 1e 00 00 	lea    0x1e02(%rip),%rdi        # 403052 <_IO_stdin_used+0x222>
  401250:	b8 00 00 00 00       	mov    $0x0,%eax
  401255:	e8 06 fa ff ff       	callq  400c60 <printf@plt>
  40125a:	48 8b 3d 1f 42 20 00 	mov    0x20421f(%rip),%rdi        # 605480 <buf_offset>
  401261:	e8 43 0d 00 00       	callq  401fa9 <launch>
  401266:	b8 00 00 00 00       	mov    $0x0,%eax
  40126b:	5b                   	pop    %rbx
  40126c:	5d                   	pop    %rbp
  40126d:	41 5c                	pop    %r12
  40126f:	41 5d                	pop    %r13
  401271:	41 5e                	pop    %r14
  401273:	c3                   	retq   

0000000000401274 <scramble>:
  401274:	b8 00 00 00 00       	mov    $0x0,%eax
  401279:	eb 11                	jmp    40128c <scramble+0x18>
  40127b:	69 d0 61 8b 00 00    	imul   $0x8b61,%eax,%edx
  401281:	01 fa                	add    %edi,%edx
  401283:	89 c1                	mov    %eax,%ecx
  401285:	89 54 8c d0          	mov    %edx,-0x30(%rsp,%rcx,4)
  401289:	83 c0 01             	add    $0x1,%eax
  40128c:	83 f8 09             	cmp    $0x9,%eax
  40128f:	76 ea                	jbe    40127b <scramble+0x7>
  401291:	8b 44 24 e4          	mov    -0x1c(%rsp),%eax
  401295:	69 c0 2d 74 00 00    	imul   $0x742d,%eax,%eax
  40129b:	89 44 24 e4          	mov    %eax,-0x1c(%rsp)
  40129f:	8b 44 24 d8          	mov    -0x28(%rsp),%eax
  4012a3:	69 c0 54 54 00 00    	imul   $0x5454,%eax,%eax
  4012a9:	89 44 24 d8          	mov    %eax,-0x28(%rsp)
  4012ad:	8b 44 24 d0          	mov    -0x30(%rsp),%eax
  4012b1:	69 c0 22 e4 00 00    	imul   $0xe422,%eax,%eax
  4012b7:	89 44 24 d0          	mov    %eax,-0x30(%rsp)
  4012bb:	8b 44 24 e0          	mov    -0x20(%rsp),%eax
  4012bf:	69 c0 1e 65 00 00    	imul   $0x651e,%eax,%eax
  4012c5:	89 44 24 e0          	mov    %eax,-0x20(%rsp)
  4012c9:	8b 44 24 d4          	mov    -0x2c(%rsp),%eax
  4012cd:	69 c0 a1 ec 00 00    	imul   $0xeca1,%eax,%eax
  4012d3:	89 44 24 d4          	mov    %eax,-0x2c(%rsp)
  4012d7:	8b 44 24 e0          	mov    -0x20(%rsp),%eax
  4012db:	69 c0 de b6 00 00    	imul   $0xb6de,%eax,%eax
  4012e1:	89 44 24 e0          	mov    %eax,-0x20(%rsp)
  4012e5:	8b 44 24 e4          	mov    -0x1c(%rsp),%eax
  4012e9:	69 c0 58 3f 00 00    	imul   $0x3f58,%eax,%eax
  4012ef:	89 44 24 e4          	mov    %eax,-0x1c(%rsp)
  4012f3:	8b 44 24 d4          	mov    -0x2c(%rsp),%eax
  4012f7:	69 c0 f2 bd 00 00    	imul   $0xbdf2,%eax,%eax
  4012fd:	89 44 24 d4          	mov    %eax,-0x2c(%rsp)
  401301:	8b 44 24 f4          	mov    -0xc(%rsp),%eax
  401305:	69 c0 52 9b 00 00    	imul   $0x9b52,%eax,%eax
  40130b:	89 44 24 f4          	mov    %eax,-0xc(%rsp)
  40130f:	8b 44 24 d8          	mov    -0x28(%rsp),%eax
  401313:	69 c0 ae ce 00 00    	imul   $0xceae,%eax,%eax
  401319:	89 44 24 d8          	mov    %eax,-0x28(%rsp)
  40131d:	8b 44 24 d0          	mov    -0x30(%rsp),%eax
  401321:	69 c0 d2 04 00 00    	imul   $0x4d2,%eax,%eax
  401327:	89 44 24 d0          	mov    %eax,-0x30(%rsp)
  40132b:	8b 44 24 d4          	mov    -0x2c(%rsp),%eax
  40132f:	69 c0 fa 94 00 00    	imul   $0x94fa,%eax,%eax
  401335:	89 44 24 d4          	mov    %eax,-0x2c(%rsp)
  401339:	8b 44 24 e0          	mov    -0x20(%rsp),%eax
  40133d:	69 c0 bc a8 00 00    	imul   $0xa8bc,%eax,%eax
  401343:	89 44 24 e0          	mov    %eax,-0x20(%rsp)
  401347:	8b 44 24 ec          	mov    -0x14(%rsp),%eax
  40134b:	69 c0 07 66 00 00    	imul   $0x6607,%eax,%eax
  401351:	89 44 24 ec          	mov    %eax,-0x14(%rsp)
  401355:	8b 44 24 e8          	mov    -0x18(%rsp),%eax
  401359:	69 c0 ca fe 00 00    	imul   $0xfeca,%eax,%eax
  40135f:	89 44 24 e8          	mov    %eax,-0x18(%rsp)
  401363:	8b 44 24 dc          	mov    -0x24(%rsp),%eax
  401367:	69 c0 90 c6 00 00    	imul   $0xc690,%eax,%eax
  40136d:	89 44 24 dc          	mov    %eax,-0x24(%rsp)
  401371:	8b 44 24 ec          	mov    -0x14(%rsp),%eax
  401375:	69 c0 67 9d 00 00    	imul   $0x9d67,%eax,%eax
  40137b:	89 44 24 ec          	mov    %eax,-0x14(%rsp)
  40137f:	8b 44 24 e4          	mov    -0x1c(%rsp),%eax
  401383:	69 c0 8d a9 00 00    	imul   $0xa98d,%eax,%eax
  401389:	89 44 24 e4          	mov    %eax,-0x1c(%rsp)
  40138d:	8b 44 24 ec          	mov    -0x14(%rsp),%eax
  401391:	69 c0 6f 57 00 00    	imul   $0x576f,%eax,%eax
  401397:	89 44 24 ec          	mov    %eax,-0x14(%rsp)
  40139b:	8b 44 24 d0          	mov    -0x30(%rsp),%eax
  40139f:	69 c0 9b 63 00 00    	imul   $0x639b,%eax,%eax
  4013a5:	89 44 24 d0          	mov    %eax,-0x30(%rsp)
  4013a9:	8b 44 24 f4          	mov    -0xc(%rsp),%eax
  4013ad:	69 c0 99 a6 00 00    	imul   $0xa699,%eax,%eax
  4013b3:	89 44 24 f4          	mov    %eax,-0xc(%rsp)
  4013b7:	8b 44 24 f4          	mov    -0xc(%rsp),%eax
  4013bb:	69 c0 6c 7f 00 00    	imul   $0x7f6c,%eax,%eax
  4013c1:	89 44 24 f4          	mov    %eax,-0xc(%rsp)
  4013c5:	8b 44 24 d0          	mov    -0x30(%rsp),%eax
  4013c9:	69 c0 78 51 00 00    	imul   $0x5178,%eax,%eax
  4013cf:	89 44 24 d0          	mov    %eax,-0x30(%rsp)
  4013d3:	8b 44 24 e0          	mov    -0x20(%rsp),%eax
  4013d7:	69 c0 7e 44 00 00    	imul   $0x447e,%eax,%eax
  4013dd:	89 44 24 e0          	mov    %eax,-0x20(%rsp)
  4013e1:	8b 44 24 e4          	mov    -0x1c(%rsp),%eax
  4013e5:	69 c0 4d c3 00 00    	imul   $0xc34d,%eax,%eax
  4013eb:	89 44 24 e4          	mov    %eax,-0x1c(%rsp)
  4013ef:	8b 44 24 e4          	mov    -0x1c(%rsp),%eax
  4013f3:	69 c0 c7 c5 00 00    	imul   $0xc5c7,%eax,%eax
  4013f9:	89 44 24 e4          	mov    %eax,-0x1c(%rsp)
  4013fd:	8b 44 24 d4          	mov    -0x2c(%rsp),%eax
  401401:	69 c0 df bf 00 00    	imul   $0xbfdf,%eax,%eax
  401407:	89 44 24 d4          	mov    %eax,-0x2c(%rsp)
  40140b:	8b 44 24 dc          	mov    -0x24(%rsp),%eax
  40140f:	69 c0 f1 d4 00 00    	imul   $0xd4f1,%eax,%eax
  401415:	89 44 24 dc          	mov    %eax,-0x24(%rsp)
  401419:	8b 44 24 d0          	mov    -0x30(%rsp),%eax
  40141d:	69 c0 f9 cc 00 00    	imul   $0xccf9,%eax,%eax
  401423:	89 44 24 d0          	mov    %eax,-0x30(%rsp)
  401427:	8b 44 24 dc          	mov    -0x24(%rsp),%eax
  40142b:	69 c0 ca a3 00 00    	imul   $0xa3ca,%eax,%eax
  401431:	89 44 24 dc          	mov    %eax,-0x24(%rsp)
  401435:	8b 44 24 ec          	mov    -0x14(%rsp),%eax
  401439:	69 c0 36 ea 00 00    	imul   $0xea36,%eax,%eax
  40143f:	89 44 24 ec          	mov    %eax,-0x14(%rsp)
  401443:	8b 44 24 dc          	mov    -0x24(%rsp),%eax
  401447:	69 c0 ba 3e 00 00    	imul   $0x3eba,%eax,%eax
  40144d:	89 44 24 dc          	mov    %eax,-0x24(%rsp)
  401451:	8b 44 24 e0          	mov    -0x20(%rsp),%eax
  401455:	69 c0 40 85 00 00    	imul   $0x8540,%eax,%eax
  40145b:	89 44 24 e0          	mov    %eax,-0x20(%rsp)
  40145f:	8b 44 24 e4          	mov    -0x1c(%rsp),%eax
  401463:	69 c0 26 09 00 00    	imul   $0x926,%eax,%eax
  401469:	89 44 24 e4          	mov    %eax,-0x1c(%rsp)
  40146d:	8b 44 24 d0          	mov    -0x30(%rsp),%eax
  401471:	69 c0 f3 f6 00 00    	imul   $0xf6f3,%eax,%eax
  401477:	89 44 24 d0          	mov    %eax,-0x30(%rsp)
  40147b:	8b 44 24 e8          	mov    -0x18(%rsp),%eax
  40147f:	69 c0 bf 20 00 00    	imul   $0x20bf,%eax,%eax
  401485:	89 44 24 e8          	mov    %eax,-0x18(%rsp)
  401489:	8b 44 24 d4          	mov    -0x2c(%rsp),%eax
  40148d:	69 c0 3b 87 00 00    	imul   $0x873b,%eax,%eax
  401493:	89 44 24 d4          	mov    %eax,-0x2c(%rsp)
  401497:	8b 44 24 f0          	mov    -0x10(%rsp),%eax
  40149b:	69 c0 7e 83 00 00    	imul   $0x837e,%eax,%eax
  4014a1:	89 44 24 f0          	mov    %eax,-0x10(%rsp)
  4014a5:	8b 44 24 d0          	mov    -0x30(%rsp),%eax
  4014a9:	69 c0 8a dd 00 00    	imul   $0xdd8a,%eax,%eax
  4014af:	89 44 24 d0          	mov    %eax,-0x30(%rsp)
  4014b3:	8b 44 24 ec          	mov    -0x14(%rsp),%eax
  4014b7:	69 c0 7e c5 00 00    	imul   $0xc57e,%eax,%eax
  4014bd:	89 44 24 ec          	mov    %eax,-0x14(%rsp)
  4014c1:	8b 44 24 d4          	mov    -0x2c(%rsp),%eax
  4014c5:	69 c0 29 db 00 00    	imul   $0xdb29,%eax,%eax
  4014cb:	89 44 24 d4          	mov    %eax,-0x2c(%rsp)
  4014cf:	8b 44 24 e0          	mov    -0x20(%rsp),%eax
  4014d3:	69 c0 f7 68 00 00    	imul   $0x68f7,%eax,%eax
  4014d9:	89 44 24 e0          	mov    %eax,-0x20(%rsp)
  4014dd:	8b 44 24 e0          	mov    -0x20(%rsp),%eax
  4014e1:	69 c0 06 e6 00 00    	imul   $0xe606,%eax,%eax
  4014e7:	89 44 24 e0          	mov    %eax,-0x20(%rsp)
  4014eb:	8b 44 24 d0          	mov    -0x30(%rsp),%eax
  4014ef:	69 c0 a4 03 00 00    	imul   $0x3a4,%eax,%eax
  4014f5:	89 44 24 d0          	mov    %eax,-0x30(%rsp)
  4014f9:	8b 44 24 d8          	mov    -0x28(%rsp),%eax
  4014fd:	69 c0 e0 78 00 00    	imul   $0x78e0,%eax,%eax
  401503:	89 44 24 d8          	mov    %eax,-0x28(%rsp)
  401507:	8b 44 24 e0          	mov    -0x20(%rsp),%eax
  40150b:	69 c0 c3 7e 00 00    	imul   $0x7ec3,%eax,%eax
  401511:	89 44 24 e0          	mov    %eax,-0x20(%rsp)
  401515:	8b 44 24 d8          	mov    -0x28(%rsp),%eax
  401519:	69 c0 c9 11 00 00    	imul   $0x11c9,%eax,%eax
  40151f:	89 44 24 d8          	mov    %eax,-0x28(%rsp)
  401523:	8b 44 24 ec          	mov    -0x14(%rsp),%eax
  401527:	69 c0 b3 ea 00 00    	imul   $0xeab3,%eax,%eax
  40152d:	89 44 24 ec          	mov    %eax,-0x14(%rsp)
  401531:	8b 44 24 e4          	mov    -0x1c(%rsp),%eax
  401535:	69 c0 c6 a5 00 00    	imul   $0xa5c6,%eax,%eax
  40153b:	89 44 24 e4          	mov    %eax,-0x1c(%rsp)
  40153f:	8b 44 24 dc          	mov    -0x24(%rsp),%eax
  401543:	69 c0 b8 73 00 00    	imul   $0x73b8,%eax,%eax
  401549:	89 44 24 dc          	mov    %eax,-0x24(%rsp)
  40154d:	8b 44 24 f4          	mov    -0xc(%rsp),%eax
  401551:	69 c0 9b 60 00 00    	imul   $0x609b,%eax,%eax
  401557:	89 44 24 f4          	mov    %eax,-0xc(%rsp)
  40155b:	8b 44 24 ec          	mov    -0x14(%rsp),%eax
  40155f:	69 c0 46 3a 00 00    	imul   $0x3a46,%eax,%eax
  401565:	89 44 24 ec          	mov    %eax,-0x14(%rsp)
  401569:	8b 44 24 e8          	mov    -0x18(%rsp),%eax
  40156d:	69 c0 a3 34 00 00    	imul   $0x34a3,%eax,%eax
  401573:	89 44 24 e8          	mov    %eax,-0x18(%rsp)
  401577:	8b 44 24 f4          	mov    -0xc(%rsp),%eax
  40157b:	69 c0 8b c0 00 00    	imul   $0xc08b,%eax,%eax
  401581:	89 44 24 f4          	mov    %eax,-0xc(%rsp)
  401585:	8b 44 24 f4          	mov    -0xc(%rsp),%eax
  401589:	69 c0 c0 85 00 00    	imul   $0x85c0,%eax,%eax
  40158f:	89 44 24 f4          	mov    %eax,-0xc(%rsp)
  401593:	8b 44 24 e0          	mov    -0x20(%rsp),%eax
  401597:	69 c0 04 b3 00 00    	imul   $0xb304,%eax,%eax
  40159d:	89 44 24 e0          	mov    %eax,-0x20(%rsp)
  4015a1:	8b 44 24 d4          	mov    -0x2c(%rsp),%eax
  4015a5:	69 c0 4f 11 00 00    	imul   $0x114f,%eax,%eax
  4015ab:	89 44 24 d4          	mov    %eax,-0x2c(%rsp)
  4015af:	8b 44 24 e4          	mov    -0x1c(%rsp),%eax
  4015b3:	69 c0 f2 fb 00 00    	imul   $0xfbf2,%eax,%eax
  4015b9:	89 44 24 e4          	mov    %eax,-0x1c(%rsp)
  4015bd:	8b 44 24 d0          	mov    -0x30(%rsp),%eax
  4015c1:	69 c0 e3 59 00 00    	imul   $0x59e3,%eax,%eax
  4015c7:	89 44 24 d0          	mov    %eax,-0x30(%rsp)
  4015cb:	8b 44 24 d4          	mov    -0x2c(%rsp),%eax
  4015cf:	69 c0 55 aa 00 00    	imul   $0xaa55,%eax,%eax
  4015d5:	89 44 24 d4          	mov    %eax,-0x2c(%rsp)
  4015d9:	8b 44 24 dc          	mov    -0x24(%rsp),%eax
  4015dd:	69 c0 05 a7 00 00    	imul   $0xa705,%eax,%eax
  4015e3:	89 44 24 dc          	mov    %eax,-0x24(%rsp)
  4015e7:	8b 44 24 e8          	mov    -0x18(%rsp),%eax
  4015eb:	69 c0 d9 35 00 00    	imul   $0x35d9,%eax,%eax
  4015f1:	89 44 24 e8          	mov    %eax,-0x18(%rsp)
  4015f5:	8b 44 24 d8          	mov    -0x28(%rsp),%eax
  4015f9:	69 c0 97 e6 00 00    	imul   $0xe697,%eax,%eax
  4015ff:	89 44 24 d8          	mov    %eax,-0x28(%rsp)
  401603:	8b 44 24 e4          	mov    -0x1c(%rsp),%eax
  401607:	69 c0 d8 4f 00 00    	imul   $0x4fd8,%eax,%eax
  40160d:	89 44 24 e4          	mov    %eax,-0x1c(%rsp)
  401611:	8b 44 24 f0          	mov    -0x10(%rsp),%eax
  401615:	69 c0 66 14 00 00    	imul   $0x1466,%eax,%eax
  40161b:	89 44 24 f0          	mov    %eax,-0x10(%rsp)
  40161f:	8b 44 24 ec          	mov    -0x14(%rsp),%eax
  401623:	69 c0 16 29 00 00    	imul   $0x2916,%eax,%eax
  401629:	89 44 24 ec          	mov    %eax,-0x14(%rsp)
  40162d:	8b 44 24 f0          	mov    -0x10(%rsp),%eax
  401631:	69 c0 08 58 00 00    	imul   $0x5808,%eax,%eax
  401637:	89 44 24 f0          	mov    %eax,-0x10(%rsp)
  40163b:	8b 44 24 dc          	mov    -0x24(%rsp),%eax
  40163f:	69 c0 d8 5c 00 00    	imul   $0x5cd8,%eax,%eax
  401645:	89 44 24 dc          	mov    %eax,-0x24(%rsp)
  401649:	8b 44 24 dc          	mov    -0x24(%rsp),%eax
  40164d:	69 c0 20 21 00 00    	imul   $0x2120,%eax,%eax
  401653:	89 44 24 dc          	mov    %eax,-0x24(%rsp)
  401657:	8b 44 24 e4          	mov    -0x1c(%rsp),%eax
  40165b:	69 c0 d8 9e 00 00    	imul   $0x9ed8,%eax,%eax
  401661:	89 44 24 e4          	mov    %eax,-0x1c(%rsp)
  401665:	8b 44 24 d0          	mov    -0x30(%rsp),%eax
  401669:	69 c0 6d a3 00 00    	imul   $0xa36d,%eax,%eax
  40166f:	89 44 24 d0          	mov    %eax,-0x30(%rsp)
  401673:	8b 44 24 e8          	mov    -0x18(%rsp),%eax
  401677:	69 c0 cb 07 00 00    	imul   $0x7cb,%eax,%eax
  40167d:	89 44 24 e8          	mov    %eax,-0x18(%rsp)
  401681:	8b 44 24 d4          	mov    -0x2c(%rsp),%eax
  401685:	69 c0 d8 6d 00 00    	imul   $0x6dd8,%eax,%eax
  40168b:	89 44 24 d4          	mov    %eax,-0x2c(%rsp)
  40168f:	8b 44 24 f4          	mov    -0xc(%rsp),%eax
  401693:	69 c0 11 ac 00 00    	imul   $0xac11,%eax,%eax
  401699:	89 44 24 f4          	mov    %eax,-0xc(%rsp)
  40169d:	8b 44 24 d4          	mov    -0x2c(%rsp),%eax
  4016a1:	69 c0 54 03 00 00    	imul   $0x354,%eax,%eax
  4016a7:	89 44 24 d4          	mov    %eax,-0x2c(%rsp)
  4016ab:	8b 44 24 f4          	mov    -0xc(%rsp),%eax
  4016af:	69 c0 7f 9a 00 00    	imul   $0x9a7f,%eax,%eax
  4016b5:	89 44 24 f4          	mov    %eax,-0xc(%rsp)
  4016b9:	8b 44 24 f0          	mov    -0x10(%rsp),%eax
  4016bd:	69 c0 80 7f 00 00    	imul   $0x7f80,%eax,%eax
  4016c3:	89 44 24 f0          	mov    %eax,-0x10(%rsp)
  4016c7:	8b 44 24 d4          	mov    -0x2c(%rsp),%eax
  4016cb:	69 c0 27 63 00 00    	imul   $0x6327,%eax,%eax
  4016d1:	89 44 24 d4          	mov    %eax,-0x2c(%rsp)
  4016d5:	8b 44 24 f4          	mov    -0xc(%rsp),%eax
  4016d9:	69 c0 e5 f0 00 00    	imul   $0xf0e5,%eax,%eax
  4016df:	89 44 24 f4          	mov    %eax,-0xc(%rsp)
  4016e3:	8b 44 24 e4          	mov    -0x1c(%rsp),%eax
  4016e7:	69 c0 74 f2 00 00    	imul   $0xf274,%eax,%eax
  4016ed:	89 44 24 e4          	mov    %eax,-0x1c(%rsp)
  4016f1:	8b 44 24 e8          	mov    -0x18(%rsp),%eax
  4016f5:	69 c0 90 76 00 00    	imul   $0x7690,%eax,%eax
  4016fb:	89 44 24 e8          	mov    %eax,-0x18(%rsp)
  4016ff:	8b 44 24 d0          	mov    -0x30(%rsp),%eax
  401703:	69 c0 4c 7a 00 00    	imul   $0x7a4c,%eax,%eax
  401709:	89 44 24 d0          	mov    %eax,-0x30(%rsp)
  40170d:	8b 44 24 d4          	mov    -0x2c(%rsp),%eax
  401711:	69 c0 e7 7e 00 00    	imul   $0x7ee7,%eax,%eax
  401717:	89 44 24 d4          	mov    %eax,-0x2c(%rsp)
  40171b:	8b 44 24 e4          	mov    -0x1c(%rsp),%eax
  40171f:	69 c0 43 5b 00 00    	imul   $0x5b43,%eax,%eax
  401725:	89 44 24 e4          	mov    %eax,-0x1c(%rsp)
  401729:	8b 44 24 f4          	mov    -0xc(%rsp),%eax
  40172d:	69 c0 88 f4 00 00    	imul   $0xf488,%eax,%eax
  401733:	89 44 24 f4          	mov    %eax,-0xc(%rsp)
  401737:	8b 44 24 d4          	mov    -0x2c(%rsp),%eax
  40173b:	69 c0 e8 46 00 00    	imul   $0x46e8,%eax,%eax
  401741:	89 44 24 d4          	mov    %eax,-0x2c(%rsp)
  401745:	8b 44 24 dc          	mov    -0x24(%rsp),%eax
  401749:	69 c0 f7 4b 00 00    	imul   $0x4bf7,%eax,%eax
  40174f:	89 44 24 dc          	mov    %eax,-0x24(%rsp)
  401753:	8b 44 24 e4          	mov    -0x1c(%rsp),%eax
  401757:	69 c0 b1 4c 00 00    	imul   $0x4cb1,%eax,%eax
  40175d:	89 44 24 e4          	mov    %eax,-0x1c(%rsp)
  401761:	8b 44 24 dc          	mov    -0x24(%rsp),%eax
  401765:	69 c0 71 52 00 00    	imul   $0x5271,%eax,%eax
  40176b:	89 44 24 dc          	mov    %eax,-0x24(%rsp)
  40176f:	8b 44 24 f4          	mov    -0xc(%rsp),%eax
  401773:	69 c0 8b 81 00 00    	imul   $0x818b,%eax,%eax
  401779:	89 44 24 f4          	mov    %eax,-0xc(%rsp)
  40177d:	8b 44 24 d0          	mov    -0x30(%rsp),%eax
  401781:	69 c0 2a 4f 00 00    	imul   $0x4f2a,%eax,%eax
  401787:	89 44 24 d0          	mov    %eax,-0x30(%rsp)
  40178b:	8b 44 24 d0          	mov    -0x30(%rsp),%eax
  40178f:	6b c0 1e             	imul   $0x1e,%eax,%eax
  401792:	89 44 24 d0          	mov    %eax,-0x30(%rsp)
  401796:	8b 44 24 e4          	mov    -0x1c(%rsp),%eax
  40179a:	69 c0 62 ec 00 00    	imul   $0xec62,%eax,%eax
  4017a0:	89 44 24 e4          	mov    %eax,-0x1c(%rsp)
  4017a4:	8b 44 24 dc          	mov    -0x24(%rsp),%eax
  4017a8:	69 c0 c1 34 00 00    	imul   $0x34c1,%eax,%eax
  4017ae:	89 44 24 dc          	mov    %eax,-0x24(%rsp)
  4017b2:	8b 44 24 f4          	mov    -0xc(%rsp),%eax
  4017b6:	69 c0 45 16 00 00    	imul   $0x1645,%eax,%eax
  4017bc:	89 44 24 f4          	mov    %eax,-0xc(%rsp)
  4017c0:	8b 44 24 e4          	mov    -0x1c(%rsp),%eax
  4017c4:	69 c0 92 e2 00 00    	imul   $0xe292,%eax,%eax
  4017ca:	89 44 24 e4          	mov    %eax,-0x1c(%rsp)
  4017ce:	ba 00 00 00 00       	mov    $0x0,%edx
  4017d3:	b8 00 00 00 00       	mov    $0x0,%eax
  4017d8:	eb 0b                	jmp    4017e5 <scramble+0x571>
  4017da:	89 d1                	mov    %edx,%ecx
  4017dc:	8b 4c 8c d0          	mov    -0x30(%rsp,%rcx,4),%ecx
  4017e0:	01 c8                	add    %ecx,%eax
  4017e2:	83 c2 01             	add    $0x1,%edx
  4017e5:	83 fa 09             	cmp    $0x9,%edx
  4017e8:	76 f0                	jbe    4017da <scramble+0x566>
  4017ea:	f3 c3                	repz retq 

00000000004017ec <getbuf>:
  4017ec:	48 83 ec 18          	sub    $0x18,%rsp
  4017f0:	48 89 e7             	mov    %rsp,%rdi
  4017f3:	e8 66 03 00 00       	callq  401b5e <Gets>
  4017f8:	b8 01 00 00 00       	mov    $0x1,%eax
  4017fd:	48 83 c4 18          	add    $0x18,%rsp
  401801:	c3                   	retq   

0000000000401802 <touch1>:
  401802:	48 83 ec 08          	sub    $0x8,%rsp
  401806:	c7 05 ec 3c 20 00 01 	movl   $0x1,0x203cec(%rip)        # 6054fc <vlevel>
  40180d:	00 00 00 
  401810:	48 8d 3d e7 18 00 00 	lea    0x18e7(%rip),%rdi        # 4030fe <_IO_stdin_used+0x2ce>
  401817:	e8 14 f4 ff ff       	callq  400c30 <puts@plt>
  40181c:	bf 01 00 00 00       	mov    $0x1,%edi
  401821:	e8 4f 05 00 00       	callq  401d75 <validate>
  401826:	bf 00 00 00 00       	mov    $0x0,%edi
  40182b:	e8 80 f5 ff ff       	callq  400db0 <exit@plt>

0000000000401830 <touch2>:
  401830:	48 83 ec 08          	sub    $0x8,%rsp
  401834:	89 fe                	mov    %edi,%esi
  401836:	c7 05 bc 3c 20 00 02 	movl   $0x2,0x203cbc(%rip)        # 6054fc <vlevel>
  40183d:	00 00 00 
  401840:	39 3d be 3c 20 00    	cmp    %edi,0x203cbe(%rip)        # 605504 <cookie>
  401846:	74 25                	je     40186d <touch2+0x3d>
  401848:	48 8d 3d f9 18 00 00 	lea    0x18f9(%rip),%rdi        # 403148 <_IO_stdin_used+0x318>
  40184f:	b8 00 00 00 00       	mov    $0x0,%eax
  401854:	e8 07 f4 ff ff       	callq  400c60 <printf@plt>
  401859:	bf 02 00 00 00       	mov    $0x2,%edi
  40185e:	e8 d0 05 00 00       	callq  401e33 <fail>
  401863:	bf 00 00 00 00       	mov    $0x0,%edi
  401868:	e8 43 f5 ff ff       	callq  400db0 <exit@plt>
  40186d:	48 8d 3d ac 18 00 00 	lea    0x18ac(%rip),%rdi        # 403120 <_IO_stdin_used+0x2f0>
  401874:	b8 00 00 00 00       	mov    $0x0,%eax
  401879:	e8 e2 f3 ff ff       	callq  400c60 <printf@plt>
  40187e:	bf 02 00 00 00       	mov    $0x2,%edi
  401883:	e8 ed 04 00 00       	callq  401d75 <validate>
  401888:	eb d9                	jmp    401863 <touch2+0x33>

000000000040188a <hexmatch>:
  40188a:	41 54                	push   %r12
  40188c:	55                   	push   %rbp
  40188d:	53                   	push   %rbx
  40188e:	48 83 ec 70          	sub    $0x70,%rsp
  401892:	89 fd                	mov    %edi,%ebp
  401894:	48 89 f3             	mov    %rsi,%rbx
  401897:	e8 74 f4 ff ff       	callq  400d10 <random@plt>
  40189c:	48 89 c1             	mov    %rax,%rcx
  40189f:	48 ba 0b d7 a3 70 3d 	movabs $0xa3d70a3d70a3d70b,%rdx
  4018a6:	0a d7 a3 
  4018a9:	48 f7 ea             	imul   %rdx
  4018ac:	48 01 ca             	add    %rcx,%rdx
  4018af:	48 c1 fa 06          	sar    $0x6,%rdx
  4018b3:	48 89 c8             	mov    %rcx,%rax
  4018b6:	48 c1 f8 3f          	sar    $0x3f,%rax
  4018ba:	48 29 c2             	sub    %rax,%rdx
  4018bd:	48 8d 04 92          	lea    (%rdx,%rdx,4),%rax
  4018c1:	48 8d 14 80          	lea    (%rax,%rax,4),%rdx
  4018c5:	48 8d 04 95 00 00 00 	lea    0x0(,%rdx,4),%rax
  4018cc:	00 
  4018cd:	48 29 c1             	sub    %rax,%rcx
  4018d0:	4c 8d 24 0c          	lea    (%rsp,%rcx,1),%r12
  4018d4:	89 ea                	mov    %ebp,%edx
  4018d6:	48 8d 35 3e 18 00 00 	lea    0x183e(%rip),%rsi        # 40311b <_IO_stdin_used+0x2eb>
  4018dd:	4c 89 e7             	mov    %r12,%rdi
  4018e0:	b8 00 00 00 00       	mov    $0x0,%eax
  4018e5:	e8 b6 f4 ff ff       	callq  400da0 <sprintf@plt>
  4018ea:	ba 09 00 00 00       	mov    $0x9,%edx
  4018ef:	4c 89 e6             	mov    %r12,%rsi
  4018f2:	48 89 df             	mov    %rbx,%rdi
  4018f5:	e8 16 f3 ff ff       	callq  400c10 <strncmp@plt>
  4018fa:	85 c0                	test   %eax,%eax
  4018fc:	0f 94 c0             	sete   %al
  4018ff:	0f b6 c0             	movzbl %al,%eax
  401902:	48 83 c4 70          	add    $0x70,%rsp
  401906:	5b                   	pop    %rbx
  401907:	5d                   	pop    %rbp
  401908:	41 5c                	pop    %r12
  40190a:	c3                   	retq   

000000000040190b <touch3>:
  40190b:	53                   	push   %rbx
  40190c:	48 89 fb             	mov    %rdi,%rbx
  40190f:	c7 05 e3 3b 20 00 03 	movl   $0x3,0x203be3(%rip)        # 6054fc <vlevel>
  401916:	00 00 00 
  401919:	48 89 fe             	mov    %rdi,%rsi
  40191c:	8b 3d e2 3b 20 00    	mov    0x203be2(%rip),%edi        # 605504 <cookie>
  401922:	e8 63 ff ff ff       	callq  40188a <hexmatch>
  401927:	85 c0                	test   %eax,%eax
  401929:	74 28                	je     401953 <touch3+0x48>
  40192b:	48 89 de             	mov    %rbx,%rsi
  40192e:	48 8d 3d 3b 18 00 00 	lea    0x183b(%rip),%rdi        # 403170 <_IO_stdin_used+0x340>
  401935:	b8 00 00 00 00       	mov    $0x0,%eax
  40193a:	e8 21 f3 ff ff       	callq  400c60 <printf@plt>
  40193f:	bf 03 00 00 00       	mov    $0x3,%edi
  401944:	e8 2c 04 00 00       	callq  401d75 <validate>
  401949:	bf 00 00 00 00       	mov    $0x0,%edi
  40194e:	e8 5d f4 ff ff       	callq  400db0 <exit@plt>
  401953:	48 89 de             	mov    %rbx,%rsi
  401956:	48 8d 3d 3b 18 00 00 	lea    0x183b(%rip),%rdi        # 403198 <_IO_stdin_used+0x368>
  40195d:	b8 00 00 00 00       	mov    $0x0,%eax
  401962:	e8 f9 f2 ff ff       	callq  400c60 <printf@plt>
  401967:	bf 03 00 00 00       	mov    $0x3,%edi
  40196c:	e8 c2 04 00 00       	callq  401e33 <fail>
  401971:	eb d6                	jmp    401949 <touch3+0x3e>

0000000000401973 <test>:
  401973:	48 83 ec 08          	sub    $0x8,%rsp
  401977:	b8 00 00 00 00       	mov    $0x0,%eax
  40197c:	e8 6b fe ff ff       	callq  4017ec <getbuf>
  401981:	89 c6                	mov    %eax,%esi
  401983:	48 8d 3d 36 18 00 00 	lea    0x1836(%rip),%rdi        # 4031c0 <_IO_stdin_used+0x390>
  40198a:	b8 00 00 00 00       	mov    $0x0,%eax
  40198f:	e8 cc f2 ff ff       	callq  400c60 <printf@plt>
  401994:	48 83 c4 08          	add    $0x8,%rsp
  401998:	c3                   	retq   

0000000000401999 <start_farm>:
  401999:	b8 01 00 00 00       	mov    $0x1,%eax
  40199e:	c3                   	retq   

000000000040199f <addval_359>:
  40199f:	8d 87 b5 58 90 c3    	lea    -0x3c6fa74b(%rdi),%eax
  4019a5:	c3                   	retq   

00000000004019a6 <setval_127>:
  4019a6:	c7 07 48 89 c7 92    	movl   $0x92c78948,(%rdi)
  4019ac:	c3                   	retq   

00000000004019ad <setval_146>:
  4019ad:	c7 07 48 89 c7 c3    	movl   $0xc3c78948,(%rdi)
  4019b3:	c3                   	retq   

00000000004019b4 <addval_406>:
  4019b4:	8d 87 48 89 c7 92    	lea    -0x6d3876b8(%rdi),%eax
  4019ba:	c3                   	retq   

00000000004019bb <setval_212>:
  4019bb:	c7 07 58 90 90 c3    	movl   $0xc3909058,(%rdi)
  4019c1:	c3                   	retq   

00000000004019c2 <getval_186>:
  4019c2:	b8 3c 48 89 c7       	mov    $0xc789483c,%eax
  4019c7:	c3                   	retq   

00000000004019c8 <addval_183>:
  4019c8:	8d 87 79 58 c7 20    	lea    0x20c75879(%rdi),%eax
  4019ce:	c3                   	retq   

00000000004019cf <addval_360>:
  4019cf:	8d 87 50 90 90 90    	lea    -0x6f6f6fb0(%rdi),%eax
  4019d5:	c3                   	retq   

00000000004019d6 <mid_farm>:
  4019d6:	b8 01 00 00 00       	mov    $0x1,%eax
  4019db:	c3                   	retq   

00000000004019dc <add_xy>:
  4019dc:	48 8d 04 37          	lea    (%rdi,%rsi,1),%rax
  4019e0:	c3                   	retq   

00000000004019e1 <addval_275>:
  4019e1:	8d 87 48 89 e0 c2    	lea    -0x3d1f76b8(%rdi),%eax
  4019e7:	c3                   	retq   

00000000004019e8 <setval_261>:
  4019e8:	c7 07 89 ce 90 c3    	movl   $0xc390ce89,(%rdi)
  4019ee:	c3                   	retq   

00000000004019ef <setval_391>:
  4019ef:	c7 07 89 c2 c4 c0    	movl   $0xc0c4c289,(%rdi)
  4019f5:	c3                   	retq   

00000000004019f6 <getval_161>:
  4019f6:	b8 89 c2 90 c3       	mov    $0xc390c289,%eax
  4019fb:	c3                   	retq   

00000000004019fc <addval_482>:
  4019fc:	8d 87 88 c2 90 90    	lea    -0x6f6f3d78(%rdi),%eax
  401a02:	c3                   	retq   

0000000000401a03 <setval_481>:
  401a03:	c7 07 48 89 e0 c7    	movl   $0xc7e08948,(%rdi)
  401a09:	c3                   	retq   

0000000000401a0a <getval_286>:
  401a0a:	b8 81 c2 38 db       	mov    $0xdb38c281,%eax
  401a0f:	c3                   	retq   

0000000000401a10 <addval_462>:
  401a10:	8d 87 8b 89 d1 92    	lea    -0x6d2e7675(%rdi),%eax
  401a16:	c3                   	retq   

0000000000401a17 <addval_123>:
  401a17:	8d 87 89 ce 48 c9    	lea    -0x36b73177(%rdi),%eax
  401a1d:	c3                   	retq   

0000000000401a1e <addval_204>:
  401a1e:	8d 87 89 c2 20 c0    	lea    -0x3fdf3d77(%rdi),%eax
  401a24:	c3                   	retq   

0000000000401a25 <getval_211>:
  401a25:	b8 48 89 e0 c3       	mov    $0xc3e08948,%eax
  401a2a:	c3                   	retq   

0000000000401a2b <getval_113>:
  401a2b:	b8 89 ce 30 c0       	mov    $0xc030ce89,%eax
  401a30:	c3                   	retq   

0000000000401a31 <addval_270>:
  401a31:	8d 87 48 88 e0 c3    	lea    -0x3c1f77b8(%rdi),%eax
  401a37:	c3                   	retq   

0000000000401a38 <getval_304>:
  401a38:	b8 89 d1 90 c2       	mov    $0xc290d189,%eax
  401a3d:	c3                   	retq   

0000000000401a3e <addval_383>:
  401a3e:	8d 87 88 d1 84 c9    	lea    -0x367b2e78(%rdi),%eax
  401a44:	c3                   	retq   

0000000000401a45 <setval_490>:
  401a45:	c7 07 09 c2 84 d2    	movl   $0xd284c209,(%rdi)
  401a4b:	c3                   	retq   

0000000000401a4c <setval_300>:
  401a4c:	c7 07 89 d1 18 d2    	movl   $0xd218d189,(%rdi)
  401a52:	c3                   	retq   

0000000000401a53 <getval_158>:
  401a53:	b8 48 89 e0 c7       	mov    $0xc7e08948,%eax
  401a58:	c3                   	retq   

0000000000401a59 <addval_493>:
  401a59:	8d 87 48 89 e0 92    	lea    -0x6d1f76b8(%rdi),%eax
  401a5f:	c3                   	retq   

0000000000401a60 <setval_392>:
  401a60:	c7 07 89 d1 38 d2    	movl   $0xd238d189,(%rdi)
  401a66:	c3                   	retq   

0000000000401a67 <getval_308>:
  401a67:	b8 99 d1 90 c3       	mov    $0xc390d199,%eax
  401a6c:	c3                   	retq   

0000000000401a6d <getval_310>:
  401a6d:	b8 81 c2 20 c0       	mov    $0xc020c281,%eax
  401a72:	c3                   	retq   

0000000000401a73 <setval_199>:
  401a73:	c7 07 89 ce 08 c0    	movl   $0xc008ce89,(%rdi)
  401a79:	c3                   	retq   

0000000000401a7a <getval_224>:
  401a7a:	b8 8e 89 d1 94       	mov    $0x94d1898e,%eax
  401a7f:	c3                   	retq   

0000000000401a80 <setval_172>:
  401a80:	c7 07 b6 89 ce c7    	movl   $0xc7ce89b6,(%rdi)
  401a86:	c3                   	retq   

0000000000401a87 <addval_235>:
  401a87:	8d 87 0f e4 99 ce    	lea    -0x31661bf1(%rdi),%eax
  401a8d:	c3                   	retq   

0000000000401a8e <getval_365>:
  401a8e:	b8 48 89 e0 94       	mov    $0x94e08948,%eax
  401a93:	c3                   	retq   

0000000000401a94 <getval_181>:
  401a94:	b8 48 89 e0 c3       	mov    $0xc3e08948,%eax
  401a99:	c3                   	retq   

0000000000401a9a <addval_122>:
  401a9a:	8d 87 77 8b ce c3    	lea    -0x3c317489(%rdi),%eax
  401aa0:	c3                   	retq   

0000000000401aa1 <getval_247>:
  401aa1:	b8 88 c2 84 db       	mov    $0xdb84c288,%eax
  401aa6:	c3                   	retq   

0000000000401aa7 <setval_426>:
  401aa7:	c7 07 50 5b 89 d1    	movl   $0xd1895b50,(%rdi)
  401aad:	c3                   	retq   

0000000000401aae <setval_215>:
  401aae:	c7 07 8b ce 84 d2    	movl   $0xd284ce8b,(%rdi)
  401ab4:	c3                   	retq   

0000000000401ab5 <end_farm>:
  401ab5:	b8 01 00 00 00       	mov    $0x1,%eax
  401aba:	c3                   	retq   

0000000000401abb <save_char>:
  401abb:	8b 05 63 46 20 00    	mov    0x204663(%rip),%eax        # 606124 <gets_cnt>
  401ac1:	3d ff 03 00 00       	cmp    $0x3ff,%eax
  401ac6:	7f 4a                	jg     401b12 <save_char+0x57>
  401ac8:	8d 14 40             	lea    (%rax,%rax,2),%edx
  401acb:	89 f9                	mov    %edi,%ecx
  401acd:	c0 e9 04             	shr    $0x4,%cl
  401ad0:	4c 8d 05 09 1a 00 00 	lea    0x1a09(%rip),%r8        # 4034e0 <trans_char>
  401ad7:	83 e1 0f             	and    $0xf,%ecx
  401ada:	45 0f b6 0c 08       	movzbl (%r8,%rcx,1),%r9d
  401adf:	48 8d 0d 3a 3a 20 00 	lea    0x203a3a(%rip),%rcx        # 605520 <gets_buf>
  401ae6:	48 63 f2             	movslq %edx,%rsi
  401ae9:	44 88 0c 31          	mov    %r9b,(%rcx,%rsi,1)
  401aed:	8d 72 01             	lea    0x1(%rdx),%esi
  401af0:	83 e7 0f             	and    $0xf,%edi
  401af3:	41 0f b6 3c 38       	movzbl (%r8,%rdi,1),%edi
  401af8:	48 63 f6             	movslq %esi,%rsi
  401afb:	40 88 3c 31          	mov    %dil,(%rcx,%rsi,1)
  401aff:	83 c2 02             	add    $0x2,%edx
  401b02:	48 63 d2             	movslq %edx,%rdx
  401b05:	c6 04 11 20          	movb   $0x20,(%rcx,%rdx,1)
  401b09:	83 c0 01             	add    $0x1,%eax
  401b0c:	89 05 12 46 20 00    	mov    %eax,0x204612(%rip)        # 606124 <gets_cnt>
  401b12:	f3 c3                	repz retq 

0000000000401b14 <save_term>:
  401b14:	8b 05 0a 46 20 00    	mov    0x20460a(%rip),%eax        # 606124 <gets_cnt>
  401b1a:	8d 04 40             	lea    (%rax,%rax,2),%eax
  401b1d:	48 98                	cltq   
  401b1f:	48 8d 15 fa 39 20 00 	lea    0x2039fa(%rip),%rdx        # 605520 <gets_buf>
  401b26:	c6 04 02 00          	movb   $0x0,(%rdx,%rax,1)
  401b2a:	c3                   	retq   

0000000000401b2b <check_fail>:
  401b2b:	48 83 ec 08          	sub    $0x8,%rsp
  401b2f:	0f be 35 f2 45 20 00 	movsbl 0x2045f2(%rip),%esi        # 606128 <target_prefix>
  401b36:	48 8d 0d e3 39 20 00 	lea    0x2039e3(%rip),%rcx        # 605520 <gets_buf>
  401b3d:	8b 15 b5 39 20 00    	mov    0x2039b5(%rip),%edx        # 6054f8 <check_level>
  401b43:	48 8d 3d 99 16 00 00 	lea    0x1699(%rip),%rdi        # 4031e3 <_IO_stdin_used+0x3b3>
  401b4a:	b8 00 00 00 00       	mov    $0x0,%eax
  401b4f:	e8 0c f1 ff ff       	callq  400c60 <printf@plt>
  401b54:	bf 01 00 00 00       	mov    $0x1,%edi
  401b59:	e8 52 f2 ff ff       	callq  400db0 <exit@plt>

0000000000401b5e <Gets>:
  401b5e:	41 54                	push   %r12
  401b60:	55                   	push   %rbp
  401b61:	53                   	push   %rbx
  401b62:	49 89 fc             	mov    %rdi,%r12
  401b65:	c7 05 b5 45 20 00 00 	movl   $0x0,0x2045b5(%rip)        # 606124 <gets_cnt>
  401b6c:	00 00 00 
  401b6f:	48 89 fb             	mov    %rdi,%rbx
  401b72:	eb 11                	jmp    401b85 <Gets+0x27>
  401b74:	48 8d 6b 01          	lea    0x1(%rbx),%rbp
  401b78:	88 03                	mov    %al,(%rbx)
  401b7a:	0f b6 f8             	movzbl %al,%edi
  401b7d:	e8 39 ff ff ff       	callq  401abb <save_char>
  401b82:	48 89 eb             	mov    %rbp,%rbx
  401b85:	48 8b 3d 64 39 20 00 	mov    0x203964(%rip),%rdi        # 6054f0 <infile>
  401b8c:	e8 8f f1 ff ff       	callq  400d20 <_IO_getc@plt>
  401b91:	83 f8 ff             	cmp    $0xffffffff,%eax
  401b94:	74 05                	je     401b9b <Gets+0x3d>
  401b96:	83 f8 0a             	cmp    $0xa,%eax
  401b99:	75 d9                	jne    401b74 <Gets+0x16>
  401b9b:	c6 03 00             	movb   $0x0,(%rbx)
  401b9e:	b8 00 00 00 00       	mov    $0x0,%eax
  401ba3:	e8 6c ff ff ff       	callq  401b14 <save_term>
  401ba8:	4c 89 e0             	mov    %r12,%rax
  401bab:	5b                   	pop    %rbx
  401bac:	5d                   	pop    %rbp
  401bad:	41 5c                	pop    %r12
  401baf:	c3                   	retq   

0000000000401bb0 <notify_server>:
  401bb0:	83 3d 51 39 20 00 00 	cmpl   $0x0,0x203951(%rip)        # 605508 <is_checker>
  401bb7:	0f 85 de 00 00 00    	jne    401c9b <notify_server+0xeb>
  401bbd:	55                   	push   %rbp
  401bbe:	53                   	push   %rbx
  401bbf:	48 81 ec 08 40 00 00 	sub    $0x4008,%rsp
  401bc6:	89 fb                	mov    %edi,%ebx
  401bc8:	8b 05 56 45 20 00    	mov    0x204556(%rip),%eax        # 606124 <gets_cnt>
  401bce:	83 c0 64             	add    $0x64,%eax
  401bd1:	3d 00 20 00 00       	cmp    $0x2000,%eax
  401bd6:	0f 8f c1 00 00 00    	jg     401c9d <notify_server+0xed>
  401bdc:	44 0f be 0d 44 45 20 	movsbl 0x204544(%rip),%r9d        # 606128 <target_prefix>
  401be3:	00 
  401be4:	83 3d 9d 38 20 00 00 	cmpl   $0x0,0x20389d(%rip)        # 605488 <notify>
  401beb:	0f 84 c7 00 00 00    	je     401cb8 <notify_server+0x108>
  401bf1:	44 8b 05 08 39 20 00 	mov    0x203908(%rip),%r8d        # 605500 <authkey>
  401bf8:	85 db                	test   %ebx,%ebx
  401bfa:	0f 84 c3 00 00 00    	je     401cc3 <notify_server+0x113>
  401c00:	48 8d 2d f2 15 00 00 	lea    0x15f2(%rip),%rbp        # 4031f9 <_IO_stdin_used+0x3c9>
  401c07:	48 8d bc 24 00 20 00 	lea    0x2000(%rsp),%rdi
  401c0e:	00 
  401c0f:	48 8d 05 0a 39 20 00 	lea    0x20390a(%rip),%rax        # 605520 <gets_buf>
  401c16:	50                   	push   %rax
  401c17:	56                   	push   %rsi
  401c18:	48 89 e9             	mov    %rbp,%rcx
  401c1b:	8b 15 0f 35 20 00    	mov    0x20350f(%rip),%edx        # 605130 <target_id>
  401c21:	48 8d 35 db 15 00 00 	lea    0x15db(%rip),%rsi        # 403203 <_IO_stdin_used+0x3d3>
  401c28:	b8 00 00 00 00       	mov    $0x0,%eax
  401c2d:	e8 6e f1 ff ff       	callq  400da0 <sprintf@plt>
  401c32:	48 83 c4 10          	add    $0x10,%rsp
  401c36:	83 3d 4b 38 20 00 00 	cmpl   $0x0,0x20384b(%rip)        # 605488 <notify>
  401c3d:	0f 84 b8 00 00 00    	je     401cfb <notify_server+0x14b>
  401c43:	85 db                	test   %ebx,%ebx
  401c45:	0f 84 a2 00 00 00    	je     401ced <notify_server+0x13d>
  401c4b:	48 8d 8c 24 00 20 00 	lea    0x2000(%rsp),%rcx
  401c52:	00 
  401c53:	49 89 e1             	mov    %rsp,%r9
  401c56:	41 b8 00 00 00 00    	mov    $0x0,%r8d
  401c5c:	48 8b 15 e5 34 20 00 	mov    0x2034e5(%rip),%rdx        # 605148 <lab>
  401c63:	48 8b 35 e6 34 20 00 	mov    0x2034e6(%rip),%rsi        # 605150 <course>
  401c6a:	48 8b 3d cf 34 20 00 	mov    0x2034cf(%rip),%rdi        # 605140 <user_id>
  401c71:	e8 6e 10 00 00       	callq  402ce4 <driver_post>
  401c76:	85 c0                	test   %eax,%eax
  401c78:	78 55                	js     401ccf <notify_server+0x11f>
  401c7a:	48 8d 3d c7 16 00 00 	lea    0x16c7(%rip),%rdi        # 403348 <_IO_stdin_used+0x518>
  401c81:	e8 aa ef ff ff       	callq  400c30 <puts@plt>
  401c86:	48 8d 3d 9e 15 00 00 	lea    0x159e(%rip),%rdi        # 40322b <_IO_stdin_used+0x3fb>
  401c8d:	e8 9e ef ff ff       	callq  400c30 <puts@plt>
  401c92:	48 81 c4 08 40 00 00 	add    $0x4008,%rsp
  401c99:	5b                   	pop    %rbx
  401c9a:	5d                   	pop    %rbp
  401c9b:	f3 c3                	repz retq 
  401c9d:	48 8d 3d 74 16 00 00 	lea    0x1674(%rip),%rdi        # 403318 <_IO_stdin_used+0x4e8>
  401ca4:	b8 00 00 00 00       	mov    $0x0,%eax
  401ca9:	e8 b2 ef ff ff       	callq  400c60 <printf@plt>
  401cae:	bf 01 00 00 00       	mov    $0x1,%edi
  401cb3:	e8 f8 f0 ff ff       	callq  400db0 <exit@plt>
  401cb8:	41 b8 ff ff ff ff    	mov    $0xffffffff,%r8d
  401cbe:	e9 35 ff ff ff       	jmpq   401bf8 <notify_server+0x48>
  401cc3:	48 8d 2d 34 15 00 00 	lea    0x1534(%rip),%rbp        # 4031fe <_IO_stdin_used+0x3ce>
  401cca:	e9 38 ff ff ff       	jmpq   401c07 <notify_server+0x57>
  401ccf:	48 89 e6             	mov    %rsp,%rsi
  401cd2:	48 8d 3d 46 15 00 00 	lea    0x1546(%rip),%rdi        # 40321f <_IO_stdin_used+0x3ef>
  401cd9:	b8 00 00 00 00       	mov    $0x0,%eax
  401cde:	e8 7d ef ff ff       	callq  400c60 <printf@plt>
  401ce3:	bf 01 00 00 00       	mov    $0x1,%edi
  401ce8:	e8 c3 f0 ff ff       	callq  400db0 <exit@plt>
  401ced:	48 8d 3d 41 15 00 00 	lea    0x1541(%rip),%rdi        # 403235 <_IO_stdin_used+0x405>
  401cf4:	e8 37 ef ff ff       	callq  400c30 <puts@plt>
  401cf9:	eb 97                	jmp    401c92 <notify_server+0xe2>
  401cfb:	48 89 ee             	mov    %rbp,%rsi
  401cfe:	48 8d 3d 7b 16 00 00 	lea    0x167b(%rip),%rdi        # 403380 <_IO_stdin_used+0x550>
  401d05:	b8 00 00 00 00       	mov    $0x0,%eax
  401d0a:	e8 51 ef ff ff       	callq  400c60 <printf@plt>
  401d0f:	48 8b 35 2a 34 20 00 	mov    0x20342a(%rip),%rsi        # 605140 <user_id>
  401d16:	48 8d 3d 1f 15 00 00 	lea    0x151f(%rip),%rdi        # 40323c <_IO_stdin_used+0x40c>
  401d1d:	b8 00 00 00 00       	mov    $0x0,%eax
  401d22:	e8 39 ef ff ff       	callq  400c60 <printf@plt>
  401d27:	48 8b 35 22 34 20 00 	mov    0x203422(%rip),%rsi        # 605150 <course>
  401d2e:	48 8d 3d 14 15 00 00 	lea    0x1514(%rip),%rdi        # 403249 <_IO_stdin_used+0x419>
  401d35:	b8 00 00 00 00       	mov    $0x0,%eax
  401d3a:	e8 21 ef ff ff       	callq  400c60 <printf@plt>
  401d3f:	48 8b 35 02 34 20 00 	mov    0x203402(%rip),%rsi        # 605148 <lab>
  401d46:	48 8d 3d 08 15 00 00 	lea    0x1508(%rip),%rdi        # 403255 <_IO_stdin_used+0x425>
  401d4d:	b8 00 00 00 00       	mov    $0x0,%eax
  401d52:	e8 09 ef ff ff       	callq  400c60 <printf@plt>
  401d57:	48 8d b4 24 00 20 00 	lea    0x2000(%rsp),%rsi
  401d5e:	00 
  401d5f:	48 8d 3d f8 14 00 00 	lea    0x14f8(%rip),%rdi        # 40325e <_IO_stdin_used+0x42e>
  401d66:	b8 00 00 00 00       	mov    $0x0,%eax
  401d6b:	e8 f0 ee ff ff       	callq  400c60 <printf@plt>
  401d70:	e9 1d ff ff ff       	jmpq   401c92 <notify_server+0xe2>

0000000000401d75 <validate>:
  401d75:	53                   	push   %rbx
  401d76:	89 fb                	mov    %edi,%ebx
  401d78:	83 3d 89 37 20 00 00 	cmpl   $0x0,0x203789(%rip)        # 605508 <is_checker>
  401d7f:	74 68                	je     401de9 <validate+0x74>
  401d81:	39 3d 75 37 20 00    	cmp    %edi,0x203775(%rip)        # 6054fc <vlevel>
  401d87:	75 2d                	jne    401db6 <validate+0x41>
  401d89:	8b 35 69 37 20 00    	mov    0x203769(%rip),%esi        # 6054f8 <check_level>
  401d8f:	39 f7                	cmp    %esi,%edi
  401d91:	75 39                	jne    401dcc <validate+0x57>
  401d93:	0f be 35 8e 43 20 00 	movsbl 0x20438e(%rip),%esi        # 606128 <target_prefix>
  401d9a:	48 8d 0d 7f 37 20 00 	lea    0x20377f(%rip),%rcx        # 605520 <gets_buf>
  401da1:	89 fa                	mov    %edi,%edx
  401da3:	48 8d 3d de 14 00 00 	lea    0x14de(%rip),%rdi        # 403288 <_IO_stdin_used+0x458>
  401daa:	b8 00 00 00 00       	mov    $0x0,%eax
  401daf:	e8 ac ee ff ff       	callq  400c60 <printf@plt>
  401db4:	5b                   	pop    %rbx
  401db5:	c3                   	retq   
  401db6:	48 8d 3d ad 14 00 00 	lea    0x14ad(%rip),%rdi        # 40326a <_IO_stdin_used+0x43a>
  401dbd:	e8 6e ee ff ff       	callq  400c30 <puts@plt>
  401dc2:	b8 00 00 00 00       	mov    $0x0,%eax
  401dc7:	e8 5f fd ff ff       	callq  401b2b <check_fail>
  401dcc:	89 fa                	mov    %edi,%edx
  401dce:	48 8d 3d d3 15 00 00 	lea    0x15d3(%rip),%rdi        # 4033a8 <_IO_stdin_used+0x578>
  401dd5:	b8 00 00 00 00       	mov    $0x0,%eax
  401dda:	e8 81 ee ff ff       	callq  400c60 <printf@plt>
  401ddf:	b8 00 00 00 00       	mov    $0x0,%eax
  401de4:	e8 42 fd ff ff       	callq  401b2b <check_fail>
  401de9:	3b 3d 0d 37 20 00    	cmp    0x20370d(%rip),%edi        # 6054fc <vlevel>
  401def:	74 1a                	je     401e0b <validate+0x96>
  401df1:	48 8d 3d 72 14 00 00 	lea    0x1472(%rip),%rdi        # 40326a <_IO_stdin_used+0x43a>
  401df8:	e8 33 ee ff ff       	callq  400c30 <puts@plt>
  401dfd:	89 de                	mov    %ebx,%esi
  401dff:	bf 00 00 00 00       	mov    $0x0,%edi
  401e04:	e8 a7 fd ff ff       	callq  401bb0 <notify_server>
  401e09:	eb a9                	jmp    401db4 <validate+0x3f>
  401e0b:	0f be 15 16 43 20 00 	movsbl 0x204316(%rip),%edx        # 606128 <target_prefix>
  401e12:	89 fe                	mov    %edi,%esi
  401e14:	48 8d 3d b5 15 00 00 	lea    0x15b5(%rip),%rdi        # 4033d0 <_IO_stdin_used+0x5a0>
  401e1b:	b8 00 00 00 00       	mov    $0x0,%eax
  401e20:	e8 3b ee ff ff       	callq  400c60 <printf@plt>
  401e25:	89 de                	mov    %ebx,%esi
  401e27:	bf 01 00 00 00       	mov    $0x1,%edi
  401e2c:	e8 7f fd ff ff       	callq  401bb0 <notify_server>
  401e31:	eb 81                	jmp    401db4 <validate+0x3f>

0000000000401e33 <fail>:
  401e33:	48 83 ec 08          	sub    $0x8,%rsp
  401e37:	83 3d ca 36 20 00 00 	cmpl   $0x0,0x2036ca(%rip)        # 605508 <is_checker>
  401e3e:	75 11                	jne    401e51 <fail+0x1e>
  401e40:	89 fe                	mov    %edi,%esi
  401e42:	bf 00 00 00 00       	mov    $0x0,%edi
  401e47:	e8 64 fd ff ff       	callq  401bb0 <notify_server>
  401e4c:	48 83 c4 08          	add    $0x8,%rsp
  401e50:	c3                   	retq   
  401e51:	b8 00 00 00 00       	mov    $0x0,%eax
  401e56:	e8 d0 fc ff ff       	callq  401b2b <check_fail>

0000000000401e5b <bushandler>:
  401e5b:	48 83 ec 08          	sub    $0x8,%rsp
  401e5f:	83 3d a2 36 20 00 00 	cmpl   $0x0,0x2036a2(%rip)        # 605508 <is_checker>
  401e66:	74 16                	je     401e7e <bushandler+0x23>
  401e68:	48 8d 3d 2e 14 00 00 	lea    0x142e(%rip),%rdi        # 40329d <_IO_stdin_used+0x46d>
  401e6f:	e8 bc ed ff ff       	callq  400c30 <puts@plt>
  401e74:	b8 00 00 00 00       	mov    $0x0,%eax
  401e79:	e8 ad fc ff ff       	callq  401b2b <check_fail>
  401e7e:	48 8d 3d 83 15 00 00 	lea    0x1583(%rip),%rdi        # 403408 <_IO_stdin_used+0x5d8>
  401e85:	e8 a6 ed ff ff       	callq  400c30 <puts@plt>
  401e8a:	48 8d 3d 16 14 00 00 	lea    0x1416(%rip),%rdi        # 4032a7 <_IO_stdin_used+0x477>
  401e91:	e8 9a ed ff ff       	callq  400c30 <puts@plt>
  401e96:	be 00 00 00 00       	mov    $0x0,%esi
  401e9b:	bf 00 00 00 00       	mov    $0x0,%edi
  401ea0:	e8 0b fd ff ff       	callq  401bb0 <notify_server>
  401ea5:	bf 01 00 00 00       	mov    $0x1,%edi
  401eaa:	e8 01 ef ff ff       	callq  400db0 <exit@plt>

0000000000401eaf <seghandler>:
  401eaf:	48 83 ec 08          	sub    $0x8,%rsp
  401eb3:	83 3d 4e 36 20 00 00 	cmpl   $0x0,0x20364e(%rip)        # 605508 <is_checker>
  401eba:	74 16                	je     401ed2 <seghandler+0x23>
  401ebc:	48 8d 3d fa 13 00 00 	lea    0x13fa(%rip),%rdi        # 4032bd <_IO_stdin_used+0x48d>
  401ec3:	e8 68 ed ff ff       	callq  400c30 <puts@plt>
  401ec8:	b8 00 00 00 00       	mov    $0x0,%eax
  401ecd:	e8 59 fc ff ff       	callq  401b2b <check_fail>
  401ed2:	48 8d 3d 4f 15 00 00 	lea    0x154f(%rip),%rdi        # 403428 <_IO_stdin_used+0x5f8>
  401ed9:	e8 52 ed ff ff       	callq  400c30 <puts@plt>
  401ede:	48 8d 3d c2 13 00 00 	lea    0x13c2(%rip),%rdi        # 4032a7 <_IO_stdin_used+0x477>
  401ee5:	e8 46 ed ff ff       	callq  400c30 <puts@plt>
  401eea:	be 00 00 00 00       	mov    $0x0,%esi
  401eef:	bf 00 00 00 00       	mov    $0x0,%edi
  401ef4:	e8 b7 fc ff ff       	callq  401bb0 <notify_server>
  401ef9:	bf 01 00 00 00       	mov    $0x1,%edi
  401efe:	e8 ad ee ff ff       	callq  400db0 <exit@plt>

0000000000401f03 <illegalhandler>:
  401f03:	48 83 ec 08          	sub    $0x8,%rsp
  401f07:	83 3d fa 35 20 00 00 	cmpl   $0x0,0x2035fa(%rip)        # 605508 <is_checker>
  401f0e:	74 16                	je     401f26 <illegalhandler+0x23>
  401f10:	48 8d 3d b9 13 00 00 	lea    0x13b9(%rip),%rdi        # 4032d0 <_IO_stdin_used+0x4a0>
  401f17:	e8 14 ed ff ff       	callq  400c30 <puts@plt>
  401f1c:	b8 00 00 00 00       	mov    $0x0,%eax
  401f21:	e8 05 fc ff ff       	callq  401b2b <check_fail>
  401f26:	48 8d 3d 23 15 00 00 	lea    0x1523(%rip),%rdi        # 403450 <_IO_stdin_used+0x620>
  401f2d:	e8 fe ec ff ff       	callq  400c30 <puts@plt>
  401f32:	48 8d 3d 6e 13 00 00 	lea    0x136e(%rip),%rdi        # 4032a7 <_IO_stdin_used+0x477>
  401f39:	e8 f2 ec ff ff       	callq  400c30 <puts@plt>
  401f3e:	be 00 00 00 00       	mov    $0x0,%esi
  401f43:	bf 00 00 00 00       	mov    $0x0,%edi
  401f48:	e8 63 fc ff ff       	callq  401bb0 <notify_server>
  401f4d:	bf 01 00 00 00       	mov    $0x1,%edi
  401f52:	e8 59 ee ff ff       	callq  400db0 <exit@plt>

0000000000401f57 <sigalrmhandler>:
  401f57:	48 83 ec 08          	sub    $0x8,%rsp
  401f5b:	83 3d a6 35 20 00 00 	cmpl   $0x0,0x2035a6(%rip)        # 605508 <is_checker>
  401f62:	74 16                	je     401f7a <sigalrmhandler+0x23>
  401f64:	48 8d 3d 79 13 00 00 	lea    0x1379(%rip),%rdi        # 4032e4 <_IO_stdin_used+0x4b4>
  401f6b:	e8 c0 ec ff ff       	callq  400c30 <puts@plt>
  401f70:	b8 00 00 00 00       	mov    $0x0,%eax
  401f75:	e8 b1 fb ff ff       	callq  401b2b <check_fail>
  401f7a:	be 05 00 00 00       	mov    $0x5,%esi
  401f7f:	48 8d 3d fa 14 00 00 	lea    0x14fa(%rip),%rdi        # 403480 <_IO_stdin_used+0x650>
  401f86:	b8 00 00 00 00       	mov    $0x0,%eax
  401f8b:	e8 d0 ec ff ff       	callq  400c60 <printf@plt>
  401f90:	be 00 00 00 00       	mov    $0x0,%esi
  401f95:	bf 00 00 00 00       	mov    $0x0,%edi
  401f9a:	e8 11 fc ff ff       	callq  401bb0 <notify_server>
  401f9f:	bf 01 00 00 00       	mov    $0x1,%edi
  401fa4:	e8 07 ee ff ff       	callq  400db0 <exit@plt>

0000000000401fa9 <launch>:
  401fa9:	55                   	push   %rbp
  401faa:	48 89 e5             	mov    %rsp,%rbp
  401fad:	48 89 fa             	mov    %rdi,%rdx
  401fb0:	48 8d 47 1e          	lea    0x1e(%rdi),%rax
  401fb4:	48 83 e0 f0          	and    $0xfffffffffffffff0,%rax
  401fb8:	48 29 c4             	sub    %rax,%rsp
  401fbb:	48 8d 7c 24 0f       	lea    0xf(%rsp),%rdi
  401fc0:	48 83 e7 f0          	and    $0xfffffffffffffff0,%rdi
  401fc4:	be f4 00 00 00       	mov    $0xf4,%esi
  401fc9:	e8 a2 ec ff ff       	callq  400c70 <memset@plt>
  401fce:	48 8b 05 cb 34 20 00 	mov    0x2034cb(%rip),%rax        # 6054a0 <stdin@@GLIBC_2.2.5>
  401fd5:	48 39 05 14 35 20 00 	cmp    %rax,0x203514(%rip)        # 6054f0 <infile>
  401fdc:	74 2b                	je     402009 <launch+0x60>
  401fde:	c7 05 14 35 20 00 00 	movl   $0x0,0x203514(%rip)        # 6054fc <vlevel>
  401fe5:	00 00 00 
  401fe8:	b8 00 00 00 00       	mov    $0x0,%eax
  401fed:	e8 81 f9 ff ff       	callq  401973 <test>
  401ff2:	83 3d 0f 35 20 00 00 	cmpl   $0x0,0x20350f(%rip)        # 605508 <is_checker>
  401ff9:	75 21                	jne    40201c <launch+0x73>
  401ffb:	48 8d 3d 02 13 00 00 	lea    0x1302(%rip),%rdi        # 403304 <_IO_stdin_used+0x4d4>
  402002:	e8 29 ec ff ff       	callq  400c30 <puts@plt>
  402007:	c9                   	leaveq 
  402008:	c3                   	retq   
  402009:	48 8d 3d dc 12 00 00 	lea    0x12dc(%rip),%rdi        # 4032ec <_IO_stdin_used+0x4bc>
  402010:	b8 00 00 00 00       	mov    $0x0,%eax
  402015:	e8 46 ec ff ff       	callq  400c60 <printf@plt>
  40201a:	eb c2                	jmp    401fde <launch+0x35>
  40201c:	48 8d 3d d6 12 00 00 	lea    0x12d6(%rip),%rdi        # 4032f9 <_IO_stdin_used+0x4c9>
  402023:	e8 08 ec ff ff       	callq  400c30 <puts@plt>
  402028:	b8 00 00 00 00       	mov    $0x0,%eax
  40202d:	e8 f9 fa ff ff       	callq  401b2b <check_fail>

0000000000402032 <stable_launch>:
  402032:	53                   	push   %rbx
  402033:	48 89 3d ae 34 20 00 	mov    %rdi,0x2034ae(%rip)        # 6054e8 <global_offset>
  40203a:	41 b9 00 00 00 00    	mov    $0x0,%r9d
  402040:	41 b8 00 00 00 00    	mov    $0x0,%r8d
  402046:	b9 32 01 00 00       	mov    $0x132,%ecx
  40204b:	ba 07 00 00 00       	mov    $0x7,%edx
  402050:	be 00 00 10 00       	mov    $0x100000,%esi
  402055:	bf 00 60 58 55       	mov    $0x55586000,%edi
  40205a:	e8 f1 eb ff ff       	callq  400c50 <mmap@plt>
  40205f:	48 89 c3             	mov    %rax,%rbx
  402062:	48 3d 00 60 58 55    	cmp    $0x55586000,%rax
  402068:	75 43                	jne    4020ad <stable_launch+0x7b>
  40206a:	48 8d 90 f8 ff 0f 00 	lea    0xffff8(%rax),%rdx
  402071:	48 89 15 b8 40 20 00 	mov    %rdx,0x2040b8(%rip)        # 606130 <stack_top>
  402078:	48 89 e0             	mov    %rsp,%rax
  40207b:	48 89 d4             	mov    %rdx,%rsp
  40207e:	48 89 c2             	mov    %rax,%rdx
  402081:	48 89 15 58 34 20 00 	mov    %rdx,0x203458(%rip)        # 6054e0 <global_save_stack>
  402088:	48 8b 3d 59 34 20 00 	mov    0x203459(%rip),%rdi        # 6054e8 <global_offset>
  40208f:	e8 15 ff ff ff       	callq  401fa9 <launch>
  402094:	48 8b 05 45 34 20 00 	mov    0x203445(%rip),%rax        # 6054e0 <global_save_stack>
  40209b:	48 89 c4             	mov    %rax,%rsp
  40209e:	be 00 00 10 00       	mov    $0x100000,%esi
  4020a3:	48 89 df             	mov    %rbx,%rdi
  4020a6:	e8 95 ec ff ff       	callq  400d40 <munmap@plt>
  4020ab:	5b                   	pop    %rbx
  4020ac:	c3                   	retq   
  4020ad:	be 00 00 10 00       	mov    $0x100000,%esi
  4020b2:	48 89 c7             	mov    %rax,%rdi
  4020b5:	e8 86 ec ff ff       	callq  400d40 <munmap@plt>
  4020ba:	ba 00 60 58 55       	mov    $0x55586000,%edx
  4020bf:	48 8d 35 f2 13 00 00 	lea    0x13f2(%rip),%rsi        # 4034b8 <_IO_stdin_used+0x688>
  4020c6:	48 8b 3d f3 33 20 00 	mov    0x2033f3(%rip),%rdi        # 6054c0 <stderr@@GLIBC_2.2.5>
  4020cd:	b8 00 00 00 00       	mov    $0x0,%eax
  4020d2:	e8 f9 eb ff ff       	callq  400cd0 <fprintf@plt>
  4020d7:	bf 01 00 00 00       	mov    $0x1,%edi
  4020dc:	e8 cf ec ff ff       	callq  400db0 <exit@plt>

00000000004020e1 <rio_readinitb>:
  4020e1:	89 37                	mov    %esi,(%rdi)
  4020e3:	c7 47 04 00 00 00 00 	movl   $0x0,0x4(%rdi)
  4020ea:	48 8d 47 10          	lea    0x10(%rdi),%rax
  4020ee:	48 89 47 08          	mov    %rax,0x8(%rdi)
  4020f2:	c3                   	retq   

00000000004020f3 <sigalrm_handler>:
  4020f3:	48 83 ec 08          	sub    $0x8,%rsp
  4020f7:	ba 00 00 00 00       	mov    $0x0,%edx
  4020fc:	48 8d 35 ed 13 00 00 	lea    0x13ed(%rip),%rsi        # 4034f0 <trans_char+0x10>
  402103:	48 8b 3d b6 33 20 00 	mov    0x2033b6(%rip),%rdi        # 6054c0 <stderr@@GLIBC_2.2.5>
  40210a:	b8 00 00 00 00       	mov    $0x0,%eax
  40210f:	e8 bc eb ff ff       	callq  400cd0 <fprintf@plt>
  402114:	bf 01 00 00 00       	mov    $0x1,%edi
  402119:	e8 92 ec ff ff       	callq  400db0 <exit@plt>

000000000040211e <urlencode>:
  40211e:	41 54                	push   %r12
  402120:	55                   	push   %rbp
  402121:	53                   	push   %rbx
  402122:	48 83 ec 10          	sub    $0x10,%rsp
  402126:	48 89 fb             	mov    %rdi,%rbx
  402129:	48 89 f5             	mov    %rsi,%rbp
  40212c:	b8 00 00 00 00       	mov    $0x0,%eax
  402131:	48 c7 c1 ff ff ff ff 	mov    $0xffffffffffffffff,%rcx
  402138:	f2 ae                	repnz scas %es:(%rdi),%al
  40213a:	48 f7 d1             	not    %rcx
  40213d:	8d 41 ff             	lea    -0x1(%rcx),%eax
  402140:	eb 0e                	jmp    402150 <urlencode+0x32>
  402142:	88 55 00             	mov    %dl,0x0(%rbp)
  402145:	48 8d 6d 01          	lea    0x1(%rbp),%rbp
  402149:	48 83 c3 01          	add    $0x1,%rbx
  40214d:	44 89 e0             	mov    %r12d,%eax
  402150:	44 8d 60 ff          	lea    -0x1(%rax),%r12d
  402154:	85 c0                	test   %eax,%eax
  402156:	0f 84 95 00 00 00    	je     4021f1 <urlencode+0xd3>
  40215c:	0f b6 13             	movzbl (%rbx),%edx
  40215f:	80 fa 2a             	cmp    $0x2a,%dl
  402162:	0f 94 c1             	sete   %cl
  402165:	80 fa 2d             	cmp    $0x2d,%dl
  402168:	0f 94 c0             	sete   %al
  40216b:	08 c1                	or     %al,%cl
  40216d:	75 d3                	jne    402142 <urlencode+0x24>
  40216f:	80 fa 2e             	cmp    $0x2e,%dl
  402172:	74 ce                	je     402142 <urlencode+0x24>
  402174:	80 fa 5f             	cmp    $0x5f,%dl
  402177:	74 c9                	je     402142 <urlencode+0x24>
  402179:	8d 42 d0             	lea    -0x30(%rdx),%eax
  40217c:	3c 09                	cmp    $0x9,%al
  40217e:	76 c2                	jbe    402142 <urlencode+0x24>
  402180:	8d 42 bf             	lea    -0x41(%rdx),%eax
  402183:	3c 19                	cmp    $0x19,%al
  402185:	76 bb                	jbe    402142 <urlencode+0x24>
  402187:	8d 42 9f             	lea    -0x61(%rdx),%eax
  40218a:	3c 19                	cmp    $0x19,%al
  40218c:	76 b4                	jbe    402142 <urlencode+0x24>
  40218e:	80 fa 20             	cmp    $0x20,%dl
  402191:	74 4c                	je     4021df <urlencode+0xc1>
  402193:	8d 42 e0             	lea    -0x20(%rdx),%eax
  402196:	3c 5f                	cmp    $0x5f,%al
  402198:	0f 96 c1             	setbe  %cl
  40219b:	80 fa 09             	cmp    $0x9,%dl
  40219e:	0f 94 c0             	sete   %al
  4021a1:	08 c1                	or     %al,%cl
  4021a3:	74 47                	je     4021ec <urlencode+0xce>
  4021a5:	0f b6 d2             	movzbl %dl,%edx
  4021a8:	48 8d 7c 24 08       	lea    0x8(%rsp),%rdi
  4021ad:	48 8d 35 d4 13 00 00 	lea    0x13d4(%rip),%rsi        # 403588 <trans_char+0xa8>
  4021b4:	b8 00 00 00 00       	mov    $0x0,%eax
  4021b9:	e8 e2 eb ff ff       	callq  400da0 <sprintf@plt>
  4021be:	0f b6 44 24 08       	movzbl 0x8(%rsp),%eax
  4021c3:	88 45 00             	mov    %al,0x0(%rbp)
  4021c6:	0f b6 44 24 09       	movzbl 0x9(%rsp),%eax
  4021cb:	88 45 01             	mov    %al,0x1(%rbp)
  4021ce:	0f b6 44 24 0a       	movzbl 0xa(%rsp),%eax
  4021d3:	88 45 02             	mov    %al,0x2(%rbp)
  4021d6:	48 8d 6d 03          	lea    0x3(%rbp),%rbp
  4021da:	e9 6a ff ff ff       	jmpq   402149 <urlencode+0x2b>
  4021df:	c6 45 00 2b          	movb   $0x2b,0x0(%rbp)
  4021e3:	48 8d 6d 01          	lea    0x1(%rbp),%rbp
  4021e7:	e9 5d ff ff ff       	jmpq   402149 <urlencode+0x2b>
  4021ec:	b8 ff ff ff ff       	mov    $0xffffffff,%eax
  4021f1:	48 83 c4 10          	add    $0x10,%rsp
  4021f5:	5b                   	pop    %rbx
  4021f6:	5d                   	pop    %rbp
  4021f7:	41 5c                	pop    %r12
  4021f9:	c3                   	retq   

00000000004021fa <rio_writen>:
  4021fa:	41 55                	push   %r13
  4021fc:	41 54                	push   %r12
  4021fe:	55                   	push   %rbp
  4021ff:	53                   	push   %rbx
  402200:	48 83 ec 08          	sub    $0x8,%rsp
  402204:	41 89 fc             	mov    %edi,%r12d
  402207:	49 89 d5             	mov    %rdx,%r13
  40220a:	48 89 f5             	mov    %rsi,%rbp
  40220d:	48 89 d3             	mov    %rdx,%rbx
  402210:	eb 06                	jmp    402218 <rio_writen+0x1e>
  402212:	48 29 c3             	sub    %rax,%rbx
  402215:	48 01 c5             	add    %rax,%rbp
  402218:	48 85 db             	test   %rbx,%rbx
  40221b:	74 24                	je     402241 <rio_writen+0x47>
  40221d:	48 89 da             	mov    %rbx,%rdx
  402220:	48 89 ee             	mov    %rbp,%rsi
  402223:	44 89 e7             	mov    %r12d,%edi
  402226:	e8 15 ea ff ff       	callq  400c40 <write@plt>
  40222b:	48 85 c0             	test   %rax,%rax
  40222e:	7f e2                	jg     402212 <rio_writen+0x18>
  402230:	e8 bb e9 ff ff       	callq  400bf0 <__errno_location@plt>
  402235:	83 38 04             	cmpl   $0x4,(%rax)
  402238:	75 15                	jne    40224f <rio_writen+0x55>
  40223a:	b8 00 00 00 00       	mov    $0x0,%eax
  40223f:	eb d1                	jmp    402212 <rio_writen+0x18>
  402241:	4c 89 e8             	mov    %r13,%rax
  402244:	48 83 c4 08          	add    $0x8,%rsp
  402248:	5b                   	pop    %rbx
  402249:	5d                   	pop    %rbp
  40224a:	41 5c                	pop    %r12
  40224c:	41 5d                	pop    %r13
  40224e:	c3                   	retq   
  40224f:	48 c7 c0 ff ff ff ff 	mov    $0xffffffffffffffff,%rax
  402256:	eb ec                	jmp    402244 <rio_writen+0x4a>

0000000000402258 <rio_read>:
  402258:	41 55                	push   %r13
  40225a:	41 54                	push   %r12
  40225c:	55                   	push   %rbp
  40225d:	53                   	push   %rbx
  40225e:	48 83 ec 08          	sub    $0x8,%rsp
  402262:	48 89 fb             	mov    %rdi,%rbx
  402265:	49 89 f5             	mov    %rsi,%r13
  402268:	49 89 d4             	mov    %rdx,%r12
  40226b:	eb 0a                	jmp    402277 <rio_read+0x1f>
  40226d:	e8 7e e9 ff ff       	callq  400bf0 <__errno_location@plt>
  402272:	83 38 04             	cmpl   $0x4,(%rax)
  402275:	75 5c                	jne    4022d3 <rio_read+0x7b>
  402277:	8b 6b 04             	mov    0x4(%rbx),%ebp
  40227a:	85 ed                	test   %ebp,%ebp
  40227c:	7f 24                	jg     4022a2 <rio_read+0x4a>
  40227e:	48 8d 6b 10          	lea    0x10(%rbx),%rbp
  402282:	ba 00 20 00 00       	mov    $0x2000,%edx
  402287:	48 89 ee             	mov    %rbp,%rsi
  40228a:	8b 3b                	mov    (%rbx),%edi
  40228c:	e8 0f ea ff ff       	callq  400ca0 <read@plt>
  402291:	89 43 04             	mov    %eax,0x4(%rbx)
  402294:	85 c0                	test   %eax,%eax
  402296:	78 d5                	js     40226d <rio_read+0x15>
  402298:	85 c0                	test   %eax,%eax
  40229a:	74 40                	je     4022dc <rio_read+0x84>
  40229c:	48 89 6b 08          	mov    %rbp,0x8(%rbx)
  4022a0:	eb d5                	jmp    402277 <rio_read+0x1f>
  4022a2:	89 e8                	mov    %ebp,%eax
  4022a4:	49 39 c4             	cmp    %rax,%r12
  4022a7:	77 03                	ja     4022ac <rio_read+0x54>
  4022a9:	44 89 e5             	mov    %r12d,%ebp
  4022ac:	4c 63 e5             	movslq %ebp,%r12
  4022af:	48 8b 73 08          	mov    0x8(%rbx),%rsi
  4022b3:	4c 89 e2             	mov    %r12,%rdx
  4022b6:	4c 89 ef             	mov    %r13,%rdi
  4022b9:	e8 32 ea ff ff       	callq  400cf0 <memcpy@plt>
  4022be:	4c 01 63 08          	add    %r12,0x8(%rbx)
  4022c2:	29 6b 04             	sub    %ebp,0x4(%rbx)
  4022c5:	4c 89 e0             	mov    %r12,%rax
  4022c8:	48 83 c4 08          	add    $0x8,%rsp
  4022cc:	5b                   	pop    %rbx
  4022cd:	5d                   	pop    %rbp
  4022ce:	41 5c                	pop    %r12
  4022d0:	41 5d                	pop    %r13
  4022d2:	c3                   	retq   
  4022d3:	48 c7 c0 ff ff ff ff 	mov    $0xffffffffffffffff,%rax
  4022da:	eb ec                	jmp    4022c8 <rio_read+0x70>
  4022dc:	b8 00 00 00 00       	mov    $0x0,%eax
  4022e1:	eb e5                	jmp    4022c8 <rio_read+0x70>

00000000004022e3 <rio_readlineb>:
  4022e3:	41 55                	push   %r13
  4022e5:	41 54                	push   %r12
  4022e7:	55                   	push   %rbp
  4022e8:	53                   	push   %rbx
  4022e9:	48 83 ec 18          	sub    $0x18,%rsp
  4022ed:	49 89 fd             	mov    %rdi,%r13
  4022f0:	49 89 d4             	mov    %rdx,%r12
  4022f3:	48 89 f5             	mov    %rsi,%rbp
  4022f6:	bb 01 00 00 00       	mov    $0x1,%ebx
  4022fb:	4c 39 e3             	cmp    %r12,%rbx
  4022fe:	73 47                	jae    402347 <rio_readlineb+0x64>
  402300:	48 8d 74 24 0f       	lea    0xf(%rsp),%rsi
  402305:	ba 01 00 00 00       	mov    $0x1,%edx
  40230a:	4c 89 ef             	mov    %r13,%rdi
  40230d:	e8 46 ff ff ff       	callq  402258 <rio_read>
  402312:	83 f8 01             	cmp    $0x1,%eax
  402315:	75 1c                	jne    402333 <rio_readlineb+0x50>
  402317:	48 8d 45 01          	lea    0x1(%rbp),%rax
  40231b:	0f b6 54 24 0f       	movzbl 0xf(%rsp),%edx
  402320:	88 55 00             	mov    %dl,0x0(%rbp)
  402323:	80 7c 24 0f 0a       	cmpb   $0xa,0xf(%rsp)
  402328:	74 1a                	je     402344 <rio_readlineb+0x61>
  40232a:	48 83 c3 01          	add    $0x1,%rbx
  40232e:	48 89 c5             	mov    %rax,%rbp
  402331:	eb c8                	jmp    4022fb <rio_readlineb+0x18>
  402333:	85 c0                	test   %eax,%eax
  402335:	75 22                	jne    402359 <rio_readlineb+0x76>
  402337:	48 83 fb 01          	cmp    $0x1,%rbx
  40233b:	75 0a                	jne    402347 <rio_readlineb+0x64>
  40233d:	b8 00 00 00 00       	mov    $0x0,%eax
  402342:	eb 0a                	jmp    40234e <rio_readlineb+0x6b>
  402344:	48 89 c5             	mov    %rax,%rbp
  402347:	c6 45 00 00          	movb   $0x0,0x0(%rbp)
  40234b:	48 89 d8             	mov    %rbx,%rax
  40234e:	48 83 c4 18          	add    $0x18,%rsp
  402352:	5b                   	pop    %rbx
  402353:	5d                   	pop    %rbp
  402354:	41 5c                	pop    %r12
  402356:	41 5d                	pop    %r13
  402358:	c3                   	retq   
  402359:	48 c7 c0 ff ff ff ff 	mov    $0xffffffffffffffff,%rax
  402360:	eb ec                	jmp    40234e <rio_readlineb+0x6b>

0000000000402362 <submitr>:
  402362:	41 57                	push   %r15
  402364:	41 56                	push   %r14
  402366:	41 55                	push   %r13
  402368:	41 54                	push   %r12
  40236a:	55                   	push   %rbp
  40236b:	53                   	push   %rbx
  40236c:	48 81 ec 58 a0 00 00 	sub    $0xa058,%rsp
  402373:	49 89 fd             	mov    %rdi,%r13
  402376:	89 74 24 14          	mov    %esi,0x14(%rsp)
  40237a:	49 89 d7             	mov    %rdx,%r15
  40237d:	48 89 4c 24 08       	mov    %rcx,0x8(%rsp)
  402382:	4c 89 44 24 18       	mov    %r8,0x18(%rsp)
  402387:	4d 89 ce             	mov    %r9,%r14
  40238a:	48 8b 9c 24 90 a0 00 	mov    0xa090(%rsp),%rbx
  402391:	00 
  402392:	c7 84 24 2c 20 00 00 	movl   $0x0,0x202c(%rsp)
  402399:	00 00 00 00 
  40239d:	ba 00 00 00 00       	mov    $0x0,%edx
  4023a2:	be 01 00 00 00       	mov    $0x1,%esi
  4023a7:	bf 02 00 00 00       	mov    $0x2,%edi
  4023ac:	e8 1f ea ff ff       	callq  400dd0 <socket@plt>
  4023b1:	85 c0                	test   %eax,%eax
  4023b3:	0f 88 ca 01 00 00    	js     402583 <submitr+0x221>
  4023b9:	89 c5                	mov    %eax,%ebp
  4023bb:	4c 89 ef             	mov    %r13,%rdi
  4023be:	e8 fd e8 ff ff       	callq  400cc0 <gethostbyname@plt>
  4023c3:	48 85 c0             	test   %rax,%rax
  4023c6:	0f 84 05 02 00 00    	je     4025d1 <submitr+0x26f>
  4023cc:	4c 8d a4 24 40 a0 00 	lea    0xa040(%rsp),%r12
  4023d3:	00 
  4023d4:	48 c7 84 24 40 a0 00 	movq   $0x0,0xa040(%rsp)
  4023db:	00 00 00 00 00 
  4023e0:	48 c7 84 24 48 a0 00 	movq   $0x0,0xa048(%rsp)
  4023e7:	00 00 00 00 00 
  4023ec:	66 c7 84 24 40 a0 00 	movw   $0x2,0xa040(%rsp)
  4023f3:	00 02 00 
  4023f6:	48 8b 48 18          	mov    0x18(%rax),%rcx
  4023fa:	48 63 50 14          	movslq 0x14(%rax),%rdx
  4023fe:	48 8d b4 24 44 a0 00 	lea    0xa044(%rsp),%rsi
  402405:	00 
  402406:	48 8b 39             	mov    (%rcx),%rdi
  402409:	e8 42 e9 ff ff       	callq  400d50 <bcopy@plt>
  40240e:	0f b7 44 24 14       	movzwl 0x14(%rsp),%eax
  402413:	66 c1 c8 08          	ror    $0x8,%ax
  402417:	66 89 84 24 42 a0 00 	mov    %ax,0xa042(%rsp)
  40241e:	00 
  40241f:	ba 10 00 00 00       	mov    $0x10,%edx
  402424:	4c 89 e6             	mov    %r12,%rsi
  402427:	89 ef                	mov    %ebp,%edi
  402429:	e8 92 e9 ff ff       	callq  400dc0 <connect@plt>
  40242e:	85 c0                	test   %eax,%eax
  402430:	0f 88 02 02 00 00    	js     402638 <submitr+0x2d6>
  402436:	48 c7 c6 ff ff ff ff 	mov    $0xffffffffffffffff,%rsi
  40243d:	b8 00 00 00 00       	mov    $0x0,%eax
  402442:	48 89 f1             	mov    %rsi,%rcx
  402445:	4c 89 f7             	mov    %r14,%rdi
  402448:	f2 ae                	repnz scas %es:(%rdi),%al
  40244a:	48 f7 d1             	not    %rcx
  40244d:	48 89 ca             	mov    %rcx,%rdx
  402450:	48 89 f1             	mov    %rsi,%rcx
  402453:	4c 89 ff             	mov    %r15,%rdi
  402456:	f2 ae                	repnz scas %es:(%rdi),%al
  402458:	48 f7 d1             	not    %rcx
  40245b:	49 89 c8             	mov    %rcx,%r8
  40245e:	48 89 f1             	mov    %rsi,%rcx
  402461:	48 8b 7c 24 08       	mov    0x8(%rsp),%rdi
  402466:	f2 ae                	repnz scas %es:(%rdi),%al
  402468:	48 f7 d1             	not    %rcx
  40246b:	4d 8d 44 08 fe       	lea    -0x2(%r8,%rcx,1),%r8
  402470:	48 89 f1             	mov    %rsi,%rcx
  402473:	48 8b 7c 24 18       	mov    0x18(%rsp),%rdi
  402478:	f2 ae                	repnz scas %es:(%rdi),%al
  40247a:	48 89 c8             	mov    %rcx,%rax
  40247d:	48 f7 d0             	not    %rax
  402480:	49 8d 4c 00 ff       	lea    -0x1(%r8,%rax,1),%rcx
  402485:	48 8d 44 52 fd       	lea    -0x3(%rdx,%rdx,2),%rax
  40248a:	48 8d 84 01 80 00 00 	lea    0x80(%rcx,%rax,1),%rax
  402491:	00 
  402492:	48 3d 00 20 00 00    	cmp    $0x2000,%rax
  402498:	0f 87 f3 01 00 00    	ja     402691 <submitr+0x32f>
  40249e:	48 8d b4 24 30 40 00 	lea    0x4030(%rsp),%rsi
  4024a5:	00 
  4024a6:	b9 00 04 00 00       	mov    $0x400,%ecx
  4024ab:	b8 00 00 00 00       	mov    $0x0,%eax
  4024b0:	48 89 f7             	mov    %rsi,%rdi
  4024b3:	f3 48 ab             	rep stos %rax,%es:(%rdi)
  4024b6:	4c 89 f7             	mov    %r14,%rdi
  4024b9:	e8 60 fc ff ff       	callq  40211e <urlencode>
  4024be:	85 c0                	test   %eax,%eax
  4024c0:	0f 88 3d 02 00 00    	js     402703 <submitr+0x3a1>
  4024c6:	4c 8d a4 24 30 60 00 	lea    0x6030(%rsp),%r12
  4024cd:	00 
  4024ce:	4d 89 e9             	mov    %r13,%r9
  4024d1:	4c 8d 84 24 30 40 00 	lea    0x4030(%rsp),%r8
  4024d8:	00 
  4024d9:	4c 89 f9             	mov    %r15,%rcx
  4024dc:	48 8b 54 24 08       	mov    0x8(%rsp),%rdx
  4024e1:	48 8d 35 30 10 00 00 	lea    0x1030(%rip),%rsi        # 403518 <trans_char+0x38>
  4024e8:	4c 89 e7             	mov    %r12,%rdi
  4024eb:	b8 00 00 00 00       	mov    $0x0,%eax
  4024f0:	e8 ab e8 ff ff       	callq  400da0 <sprintf@plt>
  4024f5:	b8 00 00 00 00       	mov    $0x0,%eax
  4024fa:	48 c7 c1 ff ff ff ff 	mov    $0xffffffffffffffff,%rcx
  402501:	4c 89 e7             	mov    %r12,%rdi
  402504:	f2 ae                	repnz scas %es:(%rdi),%al
  402506:	48 f7 d1             	not    %rcx
  402509:	48 8d 51 ff          	lea    -0x1(%rcx),%rdx
  40250d:	4c 89 e6             	mov    %r12,%rsi
  402510:	89 ef                	mov    %ebp,%edi
  402512:	e8 e3 fc ff ff       	callq  4021fa <rio_writen>
  402517:	48 85 c0             	test   %rax,%rax
  40251a:	0f 88 6d 02 00 00    	js     40278d <submitr+0x42b>
  402520:	4c 8d a4 24 30 80 00 	lea    0x8030(%rsp),%r12
  402527:	00 
  402528:	89 ee                	mov    %ebp,%esi
  40252a:	4c 89 e7             	mov    %r12,%rdi
  40252d:	e8 af fb ff ff       	callq  4020e1 <rio_readinitb>
  402532:	48 8d b4 24 30 60 00 	lea    0x6030(%rsp),%rsi
  402539:	00 
  40253a:	ba 00 20 00 00       	mov    $0x2000,%edx
  40253f:	4c 89 e7             	mov    %r12,%rdi
  402542:	e8 9c fd ff ff       	callq  4022e3 <rio_readlineb>
  402547:	48 85 c0             	test   %rax,%rax
  40254a:	0f 8e ab 02 00 00    	jle    4027fb <submitr+0x499>
  402550:	48 8d 8c 24 2c 20 00 	lea    0x202c(%rsp),%rcx
  402557:	00 
  402558:	48 8d 94 24 30 20 00 	lea    0x2030(%rsp),%rdx
  40255f:	00 
  402560:	48 8d bc 24 30 60 00 	lea    0x6030(%rsp),%rdi
  402567:	00 
  402568:	4c 8d 44 24 20       	lea    0x20(%rsp),%r8
  40256d:	48 8d 35 1b 10 00 00 	lea    0x101b(%rip),%rsi        # 40358f <trans_char+0xaf>
  402574:	b8 00 00 00 00       	mov    $0x0,%eax
  402579:	e8 b2 e7 ff ff       	callq  400d30 <__isoc99_sscanf@plt>
  40257e:	e9 9f 03 00 00       	jmpq   402922 <submitr+0x5c0>
  402583:	48 b8 45 72 72 6f 72 	movabs $0x43203a726f727245,%rax
  40258a:	3a 20 43 
  40258d:	48 89 03             	mov    %rax,(%rbx)
  402590:	48 b8 6c 69 65 6e 74 	movabs $0x6e7520746e65696c,%rax
  402597:	20 75 6e 
  40259a:	48 89 43 08          	mov    %rax,0x8(%rbx)
  40259e:	48 b8 61 62 6c 65 20 	movabs $0x206f7420656c6261,%rax
  4025a5:	74 6f 20 
  4025a8:	48 89 43 10          	mov    %rax,0x10(%rbx)
  4025ac:	48 b8 63 72 65 61 74 	movabs $0x7320657461657263,%rax
  4025b3:	65 20 73 
  4025b6:	48 89 43 18          	mov    %rax,0x18(%rbx)
  4025ba:	c7 43 20 6f 63 6b 65 	movl   $0x656b636f,0x20(%rbx)
  4025c1:	66 c7 43 24 74 00    	movw   $0x74,0x24(%rbx)
  4025c7:	b8 ff ff ff ff       	mov    $0xffffffff,%eax
  4025cc:	e9 18 03 00 00       	jmpq   4028e9 <submitr+0x587>
  4025d1:	48 b8 45 72 72 6f 72 	movabs $0x44203a726f727245,%rax
  4025d8:	3a 20 44 
  4025db:	48 89 03             	mov    %rax,(%rbx)
  4025de:	48 b8 4e 53 20 69 73 	movabs $0x6e7520736920534e,%rax
  4025e5:	20 75 6e 
  4025e8:	48 89 43 08          	mov    %rax,0x8(%rbx)
  4025ec:	48 b8 61 62 6c 65 20 	movabs $0x206f7420656c6261,%rax
  4025f3:	74 6f 20 
  4025f6:	48 89 43 10          	mov    %rax,0x10(%rbx)
  4025fa:	48 b8 72 65 73 6f 6c 	movabs $0x2065766c6f736572,%rax
  402601:	76 65 20 
  402604:	48 89 43 18          	mov    %rax,0x18(%rbx)
  402608:	48 b8 73 65 72 76 65 	movabs $0x6120726576726573,%rax
  40260f:	72 20 61 
  402612:	48 89 43 20          	mov    %rax,0x20(%rbx)
  402616:	c7 43 28 64 64 72 65 	movl   $0x65726464,0x28(%rbx)
  40261d:	66 c7 43 2c 73 73    	movw   $0x7373,0x2c(%rbx)
  402623:	c6 43 2e 00          	movb   $0x0,0x2e(%rbx)
  402627:	89 ef                	mov    %ebp,%edi
  402629:	e8 62 e6 ff ff       	callq  400c90 <close@plt>
  40262e:	b8 ff ff ff ff       	mov    $0xffffffff,%eax
  402633:	e9 b1 02 00 00       	jmpq   4028e9 <submitr+0x587>
  402638:	48 b8 45 72 72 6f 72 	movabs $0x55203a726f727245,%rax
  40263f:	3a 20 55 
  402642:	48 89 03             	mov    %rax,(%rbx)
  402645:	48 b8 6e 61 62 6c 65 	movabs $0x6f7420656c62616e,%rax
  40264c:	20 74 6f 
  40264f:	48 89 43 08          	mov    %rax,0x8(%rbx)
  402653:	48 b8 20 63 6f 6e 6e 	movabs $0x7463656e6e6f6320,%rax
  40265a:	65 63 74 
  40265d:	48 89 43 10          	mov    %rax,0x10(%rbx)
  402661:	48 b8 20 74 6f 20 74 	movabs $0x20656874206f7420,%rax
  402668:	68 65 20 
  40266b:	48 89 43 18          	mov    %rax,0x18(%rbx)
  40266f:	c7 43 20 73 65 72 76 	movl   $0x76726573,0x20(%rbx)
  402676:	66 c7 43 24 65 72    	movw   $0x7265,0x24(%rbx)
  40267c:	c6 43 26 00          	movb   $0x0,0x26(%rbx)
  402680:	89 ef                	mov    %ebp,%edi
  402682:	e8 09 e6 ff ff       	callq  400c90 <close@plt>
  402687:	b8 ff ff ff ff       	mov    $0xffffffff,%eax
  40268c:	e9 58 02 00 00       	jmpq   4028e9 <submitr+0x587>
  402691:	48 b8 45 72 72 6f 72 	movabs $0x52203a726f727245,%rax
  402698:	3a 20 52 
  40269b:	48 89 03             	mov    %rax,(%rbx)
  40269e:	48 b8 65 73 75 6c 74 	movabs $0x747320746c757365,%rax
  4026a5:	20 73 74 
  4026a8:	48 89 43 08          	mov    %rax,0x8(%rbx)
  4026ac:	48 b8 72 69 6e 67 20 	movabs $0x6f6f7420676e6972,%rax
  4026b3:	74 6f 6f 
  4026b6:	48 89 43 10          	mov    %rax,0x10(%rbx)
  4026ba:	48 b8 20 6c 61 72 67 	movabs $0x202e656772616c20,%rax
  4026c1:	65 2e 20 
  4026c4:	48 89 43 18          	mov    %rax,0x18(%rbx)
  4026c8:	48 b8 49 6e 63 72 65 	movabs $0x6573616572636e49,%rax
  4026cf:	61 73 65 
  4026d2:	48 89 43 20          	mov    %rax,0x20(%rbx)
  4026d6:	48 b8 20 53 55 42 4d 	movabs $0x5254494d42555320,%rax
  4026dd:	49 54 52 
  4026e0:	48 89 43 28          	mov    %rax,0x28(%rbx)
  4026e4:	48 b8 5f 4d 41 58 42 	movabs $0x46554258414d5f,%rax
  4026eb:	55 46 00 
  4026ee:	48 89 43 30          	mov    %rax,0x30(%rbx)
  4026f2:	89 ef                	mov    %ebp,%edi
  4026f4:	e8 97 e5 ff ff       	callq  400c90 <close@plt>
  4026f9:	b8 ff ff ff ff       	mov    $0xffffffff,%eax
  4026fe:	e9 e6 01 00 00       	jmpq   4028e9 <submitr+0x587>
  402703:	48 b8 45 72 72 6f 72 	movabs $0x52203a726f727245,%rax
  40270a:	3a 20 52 
  40270d:	48 89 03             	mov    %rax,(%rbx)
  402710:	48 b8 65 73 75 6c 74 	movabs $0x747320746c757365,%rax
  402717:	20 73 74 
  40271a:	48 89 43 08          	mov    %rax,0x8(%rbx)
  40271e:	48 b8 72 69 6e 67 20 	movabs $0x6e6f6320676e6972,%rax
  402725:	63 6f 6e 
  402728:	48 89 43 10          	mov    %rax,0x10(%rbx)
  40272c:	48 b8 74 61 69 6e 73 	movabs $0x6e6120736e696174,%rax
  402733:	20 61 6e 
  402736:	48 89 43 18          	mov    %rax,0x18(%rbx)
  40273a:	48 b8 20 69 6c 6c 65 	movabs $0x6c6167656c6c6920,%rax
  402741:	67 61 6c 
  402744:	48 89 43 20          	mov    %rax,0x20(%rbx)
  402748:	48 b8 20 6f 72 20 75 	movabs $0x72706e7520726f20,%rax
  40274f:	6e 70 72 
  402752:	48 89 43 28          	mov    %rax,0x28(%rbx)
  402756:	48 b8 69 6e 74 61 62 	movabs $0x20656c6261746e69,%rax
  40275d:	6c 65 20 
  402760:	48 89 43 30          	mov    %rax,0x30(%rbx)
  402764:	48 b8 63 68 61 72 61 	movabs $0x6574636172616863,%rax
  40276b:	63 74 65 
  40276e:	48 89 43 38          	mov    %rax,0x38(%rbx)
  402772:	66 c7 43 40 72 2e    	movw   $0x2e72,0x40(%rbx)
  402778:	c6 43 42 00          	movb   $0x0,0x42(%rbx)
  40277c:	89 ef                	mov    %ebp,%edi
  40277e:	e8 0d e5 ff ff       	callq  400c90 <close@plt>
  402783:	b8 ff ff ff ff       	mov    $0xffffffff,%eax
  402788:	e9 5c 01 00 00       	jmpq   4028e9 <submitr+0x587>
  40278d:	48 b8 45 72 72 6f 72 	movabs $0x43203a726f727245,%rax
  402794:	3a 20 43 
  402797:	48 89 03             	mov    %rax,(%rbx)
  40279a:	48 b8 6c 69 65 6e 74 	movabs $0x6e7520746e65696c,%rax
  4027a1:	20 75 6e 
  4027a4:	48 89 43 08          	mov    %rax,0x8(%rbx)
  4027a8:	48 b8 61 62 6c 65 20 	movabs $0x206f7420656c6261,%rax
  4027af:	74 6f 20 
  4027b2:	48 89 43 10          	mov    %rax,0x10(%rbx)
  4027b6:	48 b8 77 72 69 74 65 	movabs $0x6f74206574697277,%rax
  4027bd:	20 74 6f 
  4027c0:	48 89 43 18          	mov    %rax,0x18(%rbx)
  4027c4:	48 b8 20 74 68 65 20 	movabs $0x7365722065687420,%rax
  4027cb:	72 65 73 
  4027ce:	48 89 43 20          	mov    %rax,0x20(%rbx)
  4027d2:	48 b8 75 6c 74 20 73 	movabs $0x7672657320746c75,%rax
  4027d9:	65 72 76 
  4027dc:	48 89 43 28          	mov    %rax,0x28(%rbx)
  4027e0:	66 c7 43 30 65 72    	movw   $0x7265,0x30(%rbx)
  4027e6:	c6 43 32 00          	movb   $0x0,0x32(%rbx)
  4027ea:	89 ef                	mov    %ebp,%edi
  4027ec:	e8 9f e4 ff ff       	callq  400c90 <close@plt>
  4027f1:	b8 ff ff ff ff       	mov    $0xffffffff,%eax
  4027f6:	e9 ee 00 00 00       	jmpq   4028e9 <submitr+0x587>
  4027fb:	48 b8 45 72 72 6f 72 	movabs $0x43203a726f727245,%rax
  402802:	3a 20 43 
  402805:	48 89 03             	mov    %rax,(%rbx)
  402808:	48 b8 6c 69 65 6e 74 	movabs $0x6e7520746e65696c,%rax
  40280f:	20 75 6e 
  402812:	48 89 43 08          	mov    %rax,0x8(%rbx)
  402816:	48 b8 61 62 6c 65 20 	movabs $0x206f7420656c6261,%rax
  40281d:	74 6f 20 
  402820:	48 89 43 10          	mov    %rax,0x10(%rbx)
  402824:	48 b8 72 65 61 64 20 	movabs $0x7269662064616572,%rax
  40282b:	66 69 72 
  40282e:	48 89 43 18          	mov    %rax,0x18(%rbx)
  402832:	48 b8 73 74 20 68 65 	movabs $0x6564616568207473,%rax
  402839:	61 64 65 
  40283c:	48 89 43 20          	mov    %rax,0x20(%rbx)
  402840:	48 b8 72 20 66 72 6f 	movabs $0x72206d6f72662072,%rax
  402847:	6d 20 72 
  40284a:	48 89 43 28          	mov    %rax,0x28(%rbx)
  40284e:	48 b8 65 73 75 6c 74 	movabs $0x657320746c757365,%rax
  402855:	20 73 65 
  402858:	48 89 43 30          	mov    %rax,0x30(%rbx)
  40285c:	c7 43 38 72 76 65 72 	movl   $0x72657672,0x38(%rbx)
  402863:	c6 43 3c 00          	movb   $0x0,0x3c(%rbx)
  402867:	89 ef                	mov    %ebp,%edi
  402869:	e8 22 e4 ff ff       	callq  400c90 <close@plt>
  40286e:	b8 ff ff ff ff       	mov    $0xffffffff,%eax
  402873:	eb 74                	jmp    4028e9 <submitr+0x587>
  402875:	48 b8 45 72 72 6f 72 	movabs $0x43203a726f727245,%rax
  40287c:	3a 20 43 
  40287f:	48 89 03             	mov    %rax,(%rbx)
  402882:	48 b8 6c 69 65 6e 74 	movabs $0x6e7520746e65696c,%rax
  402889:	20 75 6e 
  40288c:	48 89 43 08          	mov    %rax,0x8(%rbx)
  402890:	48 b8 61 62 6c 65 20 	movabs $0x206f7420656c6261,%rax
  402897:	74 6f 20 
  40289a:	48 89 43 10          	mov    %rax,0x10(%rbx)
  40289e:	48 b8 72 65 61 64 20 	movabs $0x6165682064616572,%rax
  4028a5:	68 65 61 
  4028a8:	48 89 43 18          	mov    %rax,0x18(%rbx)
  4028ac:	48 b8 64 65 72 73 20 	movabs $0x6f72662073726564,%rax
  4028b3:	66 72 6f 
  4028b6:	48 89 43 20          	mov    %rax,0x20(%rbx)
  4028ba:	48 b8 6d 20 74 68 65 	movabs $0x657220656874206d,%rax
  4028c1:	20 72 65 
  4028c4:	48 89 43 28          	mov    %rax,0x28(%rbx)
  4028c8:	48 b8 73 75 6c 74 20 	movabs $0x72657320746c7573,%rax
  4028cf:	73 65 72 
  4028d2:	48 89 43 30          	mov    %rax,0x30(%rbx)
  4028d6:	c7 43 38 76 65 72 00 	movl   $0x726576,0x38(%rbx)
  4028dd:	89 ef                	mov    %ebp,%edi
  4028df:	e8 ac e3 ff ff       	callq  400c90 <close@plt>
  4028e4:	b8 ff ff ff ff       	mov    $0xffffffff,%eax
  4028e9:	48 81 c4 58 a0 00 00 	add    $0xa058,%rsp
  4028f0:	5b                   	pop    %rbx
  4028f1:	5d                   	pop    %rbp
  4028f2:	41 5c                	pop    %r12
  4028f4:	41 5d                	pop    %r13
  4028f6:	41 5e                	pop    %r14
  4028f8:	41 5f                	pop    %r15
  4028fa:	c3                   	retq   
  4028fb:	85 c0                	test   %eax,%eax
  4028fd:	74 51                	je     402950 <submitr+0x5ee>
  4028ff:	48 8d b4 24 30 60 00 	lea    0x6030(%rsp),%rsi
  402906:	00 
  402907:	48 8d bc 24 30 80 00 	lea    0x8030(%rsp),%rdi
  40290e:	00 
  40290f:	ba 00 20 00 00       	mov    $0x2000,%edx
  402914:	e8 ca f9 ff ff       	callq  4022e3 <rio_readlineb>
  402919:	48 85 c0             	test   %rax,%rax
  40291c:	0f 8e 53 ff ff ff    	jle    402875 <submitr+0x513>
  402922:	0f b6 94 24 30 60 00 	movzbl 0x6030(%rsp),%edx
  402929:	00 
  40292a:	b8 0d 00 00 00       	mov    $0xd,%eax
  40292f:	29 d0                	sub    %edx,%eax
  402931:	75 c8                	jne    4028fb <submitr+0x599>
  402933:	0f b6 94 24 31 60 00 	movzbl 0x6031(%rsp),%edx
  40293a:	00 
  40293b:	b8 0a 00 00 00       	mov    $0xa,%eax
  402940:	29 d0                	sub    %edx,%eax
  402942:	75 b7                	jne    4028fb <submitr+0x599>
  402944:	0f b6 84 24 32 60 00 	movzbl 0x6032(%rsp),%eax
  40294b:	00 
  40294c:	f7 d8                	neg    %eax
  40294e:	eb ab                	jmp    4028fb <submitr+0x599>
  402950:	48 8d b4 24 30 60 00 	lea    0x6030(%rsp),%rsi
  402957:	00 
  402958:	48 8d bc 24 30 80 00 	lea    0x8030(%rsp),%rdi
  40295f:	00 
  402960:	ba 00 20 00 00       	mov    $0x2000,%edx
  402965:	e8 79 f9 ff ff       	callq  4022e3 <rio_readlineb>
  40296a:	48 85 c0             	test   %rax,%rax
  40296d:	7e 67                	jle    4029d6 <submitr+0x674>
  40296f:	8b 94 24 2c 20 00 00 	mov    0x202c(%rsp),%edx
  402976:	81 fa c8 00 00 00    	cmp    $0xc8,%edx
  40297c:	0f 85 d7 00 00 00    	jne    402a59 <submitr+0x6f7>
  402982:	48 8d b4 24 30 60 00 	lea    0x6030(%rsp),%rsi
  402989:	00 
  40298a:	48 89 df             	mov    %rbx,%rdi
  40298d:	e8 8e e2 ff ff       	callq  400c20 <strcpy@plt>
  402992:	89 ef                	mov    %ebp,%edi
  402994:	e8 f7 e2 ff ff       	callq  400c90 <close@plt>
  402999:	0f b6 03             	movzbl (%rbx),%eax
  40299c:	ba 4f 00 00 00       	mov    $0x4f,%edx
  4029a1:	29 c2                	sub    %eax,%edx
  4029a3:	0f 85 da 00 00 00    	jne    402a83 <submitr+0x721>
  4029a9:	0f b6 4b 01          	movzbl 0x1(%rbx),%ecx
  4029ad:	b8 4b 00 00 00       	mov    $0x4b,%eax
  4029b2:	29 c8                	sub    %ecx,%eax
  4029b4:	0f 85 cb 00 00 00    	jne    402a85 <submitr+0x723>
  4029ba:	0f b6 4b 02          	movzbl 0x2(%rbx),%ecx
  4029be:	b8 0a 00 00 00       	mov    $0xa,%eax
  4029c3:	29 c8                	sub    %ecx,%eax
  4029c5:	0f 85 ba 00 00 00    	jne    402a85 <submitr+0x723>
  4029cb:	0f b6 43 03          	movzbl 0x3(%rbx),%eax
  4029cf:	f7 d8                	neg    %eax
  4029d1:	e9 af 00 00 00       	jmpq   402a85 <submitr+0x723>
  4029d6:	48 b8 45 72 72 6f 72 	movabs $0x43203a726f727245,%rax
  4029dd:	3a 20 43 
  4029e0:	48 89 03             	mov    %rax,(%rbx)
  4029e3:	48 b8 6c 69 65 6e 74 	movabs $0x6e7520746e65696c,%rax
  4029ea:	20 75 6e 
  4029ed:	48 89 43 08          	mov    %rax,0x8(%rbx)
  4029f1:	48 b8 61 62 6c 65 20 	movabs $0x206f7420656c6261,%rax
  4029f8:	74 6f 20 
  4029fb:	48 89 43 10          	mov    %rax,0x10(%rbx)
  4029ff:	48 b8 72 65 61 64 20 	movabs $0x6174732064616572,%rax
  402a06:	73 74 61 
  402a09:	48 89 43 18          	mov    %rax,0x18(%rbx)
  402a0d:	48 b8 74 75 73 20 6d 	movabs $0x7373656d20737574,%rax
  402a14:	65 73 73 
  402a17:	48 89 43 20          	mov    %rax,0x20(%rbx)
  402a1b:	48 b8 61 67 65 20 66 	movabs $0x6d6f726620656761,%rax
  402a22:	72 6f 6d 
  402a25:	48 89 43 28          	mov    %rax,0x28(%rbx)
  402a29:	48 b8 20 72 65 73 75 	movabs $0x20746c7573657220,%rax
  402a30:	6c 74 20 
  402a33:	48 89 43 30          	mov    %rax,0x30(%rbx)
  402a37:	c7 43 38 73 65 72 76 	movl   $0x76726573,0x38(%rbx)
  402a3e:	66 c7 43 3c 65 72    	movw   $0x7265,0x3c(%rbx)
  402a44:	c6 43 3e 00          	movb   $0x0,0x3e(%rbx)
  402a48:	89 ef                	mov    %ebp,%edi
  402a4a:	e8 41 e2 ff ff       	callq  400c90 <close@plt>
  402a4f:	b8 ff ff ff ff       	mov    $0xffffffff,%eax
  402a54:	e9 90 fe ff ff       	jmpq   4028e9 <submitr+0x587>
  402a59:	48 8d 4c 24 20       	lea    0x20(%rsp),%rcx
  402a5e:	48 8d 35 f3 0a 00 00 	lea    0xaf3(%rip),%rsi        # 403558 <trans_char+0x78>
  402a65:	48 89 df             	mov    %rbx,%rdi
  402a68:	b8 00 00 00 00       	mov    $0x0,%eax
  402a6d:	e8 2e e3 ff ff       	callq  400da0 <sprintf@plt>
  402a72:	89 ef                	mov    %ebp,%edi
  402a74:	e8 17 e2 ff ff       	callq  400c90 <close@plt>
  402a79:	b8 ff ff ff ff       	mov    $0xffffffff,%eax
  402a7e:	e9 66 fe ff ff       	jmpq   4028e9 <submitr+0x587>
  402a83:	89 d0                	mov    %edx,%eax
  402a85:	f7 d8                	neg    %eax
  402a87:	0f 84 5c fe ff ff    	je     4028e9 <submitr+0x587>
  402a8d:	b9 05 00 00 00       	mov    $0x5,%ecx
  402a92:	48 8d 3d 07 0b 00 00 	lea    0xb07(%rip),%rdi        # 4035a0 <trans_char+0xc0>
  402a99:	48 89 de             	mov    %rbx,%rsi
  402a9c:	f3 a6                	repz cmpsb %es:(%rdi),%ds:(%rsi)
  402a9e:	0f 97 c0             	seta   %al
  402aa1:	0f 92 c1             	setb   %cl
  402aa4:	29 c8                	sub    %ecx,%eax
  402aa6:	0f be c0             	movsbl %al,%eax
  402aa9:	85 c0                	test   %eax,%eax
  402aab:	0f 84 38 fe ff ff    	je     4028e9 <submitr+0x587>
  402ab1:	85 d2                	test   %edx,%edx
  402ab3:	75 13                	jne    402ac8 <submitr+0x766>
  402ab5:	0f b6 43 01          	movzbl 0x1(%rbx),%eax
  402ab9:	ba 4b 00 00 00       	mov    $0x4b,%edx
  402abe:	29 c2                	sub    %eax,%edx
  402ac0:	75 06                	jne    402ac8 <submitr+0x766>
  402ac2:	0f b6 53 02          	movzbl 0x2(%rbx),%edx
  402ac6:	f7 da                	neg    %edx
  402ac8:	89 d0                	mov    %edx,%eax
  402aca:	f7 d8                	neg    %eax
  402acc:	0f 84 17 fe ff ff    	je     4028e9 <submitr+0x587>
  402ad2:	b8 ff ff ff ff       	mov    $0xffffffff,%eax
  402ad7:	e9 0d fe ff ff       	jmpq   4028e9 <submitr+0x587>

0000000000402adc <init_timeout>:
  402adc:	85 ff                	test   %edi,%edi
  402ade:	74 20                	je     402b00 <init_timeout+0x24>
  402ae0:	53                   	push   %rbx
  402ae1:	89 fb                	mov    %edi,%ebx
  402ae3:	85 ff                	test   %edi,%edi
  402ae5:	78 1b                	js     402b02 <init_timeout+0x26>
  402ae7:	48 8d 35 05 f6 ff ff 	lea    -0x9fb(%rip),%rsi        # 4020f3 <sigalrm_handler>
  402aee:	bf 0e 00 00 00       	mov    $0xe,%edi
  402af3:	e8 b8 e1 ff ff       	callq  400cb0 <signal@plt>
  402af8:	89 df                	mov    %ebx,%edi
  402afa:	e8 81 e1 ff ff       	callq  400c80 <alarm@plt>
  402aff:	5b                   	pop    %rbx
  402b00:	f3 c3                	repz retq 
  402b02:	bb 00 00 00 00       	mov    $0x0,%ebx
  402b07:	eb de                	jmp    402ae7 <init_timeout+0xb>

0000000000402b09 <init_driver>:
  402b09:	41 54                	push   %r12
  402b0b:	55                   	push   %rbp
  402b0c:	53                   	push   %rbx
  402b0d:	48 83 ec 10          	sub    $0x10,%rsp
  402b11:	48 89 fd             	mov    %rdi,%rbp
  402b14:	be 01 00 00 00       	mov    $0x1,%esi
  402b19:	bf 0d 00 00 00       	mov    $0xd,%edi
  402b1e:	e8 8d e1 ff ff       	callq  400cb0 <signal@plt>
  402b23:	be 01 00 00 00       	mov    $0x1,%esi
  402b28:	bf 1d 00 00 00       	mov    $0x1d,%edi
  402b2d:	e8 7e e1 ff ff       	callq  400cb0 <signal@plt>
  402b32:	be 01 00 00 00       	mov    $0x1,%esi
  402b37:	bf 1d 00 00 00       	mov    $0x1d,%edi
  402b3c:	e8 6f e1 ff ff       	callq  400cb0 <signal@plt>
  402b41:	ba 00 00 00 00       	mov    $0x0,%edx
  402b46:	be 01 00 00 00       	mov    $0x1,%esi
  402b4b:	bf 02 00 00 00       	mov    $0x2,%edi
  402b50:	e8 7b e2 ff ff       	callq  400dd0 <socket@plt>
  402b55:	85 c0                	test   %eax,%eax
  402b57:	0f 88 80 00 00 00    	js     402bdd <init_driver+0xd4>
  402b5d:	89 c3                	mov    %eax,%ebx
  402b5f:	48 8d 3d 3f 0a 00 00 	lea    0xa3f(%rip),%rdi        # 4035a5 <trans_char+0xc5>
  402b66:	e8 55 e1 ff ff       	callq  400cc0 <gethostbyname@plt>
  402b6b:	48 85 c0             	test   %rax,%rax
  402b6e:	0f 84 b5 00 00 00    	je     402c29 <init_driver+0x120>
  402b74:	48 c7 04 24 00 00 00 	movq   $0x0,(%rsp)
  402b7b:	00 
  402b7c:	48 c7 44 24 08 00 00 	movq   $0x0,0x8(%rsp)
  402b83:	00 00 
  402b85:	66 c7 04 24 02 00    	movw   $0x2,(%rsp)
  402b8b:	48 8b 48 18          	mov    0x18(%rax),%rcx
  402b8f:	48 63 50 14          	movslq 0x14(%rax),%rdx
  402b93:	48 8d 74 24 04       	lea    0x4(%rsp),%rsi
  402b98:	48 8b 39             	mov    (%rcx),%rdi
  402b9b:	e8 b0 e1 ff ff       	callq  400d50 <bcopy@plt>
  402ba0:	66 c7 44 24 02 3c a4 	movw   $0xa43c,0x2(%rsp)
  402ba7:	ba 10 00 00 00       	mov    $0x10,%edx
  402bac:	48 89 e6             	mov    %rsp,%rsi
  402baf:	89 df                	mov    %ebx,%edi
  402bb1:	e8 0a e2 ff ff       	callq  400dc0 <connect@plt>
  402bb6:	85 c0                	test   %eax,%eax
  402bb8:	0f 88 d3 00 00 00    	js     402c91 <init_driver+0x188>
  402bbe:	89 df                	mov    %ebx,%edi
  402bc0:	e8 cb e0 ff ff       	callq  400c90 <close@plt>
  402bc5:	66 c7 45 00 4f 4b    	movw   $0x4b4f,0x0(%rbp)
  402bcb:	c6 45 02 00          	movb   $0x0,0x2(%rbp)
  402bcf:	b8 00 00 00 00       	mov    $0x0,%eax
  402bd4:	48 83 c4 10          	add    $0x10,%rsp
  402bd8:	5b                   	pop    %rbx
  402bd9:	5d                   	pop    %rbp
  402bda:	41 5c                	pop    %r12
  402bdc:	c3                   	retq   
  402bdd:	48 b8 45 72 72 6f 72 	movabs $0x43203a726f727245,%rax
  402be4:	3a 20 43 
  402be7:	48 89 45 00          	mov    %rax,0x0(%rbp)
  402beb:	48 b8 6c 69 65 6e 74 	movabs $0x6e7520746e65696c,%rax
  402bf2:	20 75 6e 
  402bf5:	48 89 45 08          	mov    %rax,0x8(%rbp)
  402bf9:	48 b8 61 62 6c 65 20 	movabs $0x206f7420656c6261,%rax
  402c00:	74 6f 20 
  402c03:	48 89 45 10          	mov    %rax,0x10(%rbp)
  402c07:	48 b8 63 72 65 61 74 	movabs $0x7320657461657263,%rax
  402c0e:	65 20 73 
  402c11:	48 89 45 18          	mov    %rax,0x18(%rbp)
  402c15:	c7 45 20 6f 63 6b 65 	movl   $0x656b636f,0x20(%rbp)
  402c1c:	66 c7 45 24 74 00    	movw   $0x74,0x24(%rbp)
  402c22:	b8 ff ff ff ff       	mov    $0xffffffff,%eax
  402c27:	eb ab                	jmp    402bd4 <init_driver+0xcb>
  402c29:	48 b8 45 72 72 6f 72 	movabs $0x44203a726f727245,%rax
  402c30:	3a 20 44 
  402c33:	48 89 45 00          	mov    %rax,0x0(%rbp)
  402c37:	48 b8 4e 53 20 69 73 	movabs $0x6e7520736920534e,%rax
  402c3e:	20 75 6e 
  402c41:	48 89 45 08          	mov    %rax,0x8(%rbp)
  402c45:	48 b8 61 62 6c 65 20 	movabs $0x206f7420656c6261,%rax
  402c4c:	74 6f 20 
  402c4f:	48 89 45 10          	mov    %rax,0x10(%rbp)
  402c53:	48 b8 72 65 73 6f 6c 	movabs $0x2065766c6f736572,%rax
  402c5a:	76 65 20 
  402c5d:	48 89 45 18          	mov    %rax,0x18(%rbp)
  402c61:	48 b8 73 65 72 76 65 	movabs $0x6120726576726573,%rax
  402c68:	72 20 61 
  402c6b:	48 89 45 20          	mov    %rax,0x20(%rbp)
  402c6f:	c7 45 28 64 64 72 65 	movl   $0x65726464,0x28(%rbp)
  402c76:	66 c7 45 2c 73 73    	movw   $0x7373,0x2c(%rbp)
  402c7c:	c6 45 2e 00          	movb   $0x0,0x2e(%rbp)
  402c80:	89 df                	mov    %ebx,%edi
  402c82:	e8 09 e0 ff ff       	callq  400c90 <close@plt>
  402c87:	b8 ff ff ff ff       	mov    $0xffffffff,%eax
  402c8c:	e9 43 ff ff ff       	jmpq   402bd4 <init_driver+0xcb>
  402c91:	48 b8 45 72 72 6f 72 	movabs $0x55203a726f727245,%rax
  402c98:	3a 20 55 
  402c9b:	48 89 45 00          	mov    %rax,0x0(%rbp)
  402c9f:	48 b8 6e 61 62 6c 65 	movabs $0x6f7420656c62616e,%rax
  402ca6:	20 74 6f 
  402ca9:	48 89 45 08          	mov    %rax,0x8(%rbp)
  402cad:	48 b8 20 63 6f 6e 6e 	movabs $0x7463656e6e6f6320,%rax
  402cb4:	65 63 74 
  402cb7:	48 89 45 10          	mov    %rax,0x10(%rbp)
  402cbb:	48 b8 20 74 6f 20 73 	movabs $0x76726573206f7420,%rax
  402cc2:	65 72 76 
  402cc5:	48 89 45 18          	mov    %rax,0x18(%rbp)
  402cc9:	66 c7 45 20 65 72    	movw   $0x7265,0x20(%rbp)
  402ccf:	c6 45 22 00          	movb   $0x0,0x22(%rbp)
  402cd3:	89 df                	mov    %ebx,%edi
  402cd5:	e8 b6 df ff ff       	callq  400c90 <close@plt>
  402cda:	b8 ff ff ff ff       	mov    $0xffffffff,%eax
  402cdf:	e9 f0 fe ff ff       	jmpq   402bd4 <init_driver+0xcb>

0000000000402ce4 <driver_post>:
  402ce4:	53                   	push   %rbx
  402ce5:	4c 89 cb             	mov    %r9,%rbx
  402ce8:	45 85 c0             	test   %r8d,%r8d
  402ceb:	75 18                	jne    402d05 <driver_post+0x21>
  402ced:	48 85 ff             	test   %rdi,%rdi
  402cf0:	74 05                	je     402cf7 <driver_post+0x13>
  402cf2:	80 3f 00             	cmpb   $0x0,(%rdi)
  402cf5:	75 32                	jne    402d29 <driver_post+0x45>
  402cf7:	66 c7 03 4f 4b       	movw   $0x4b4f,(%rbx)
  402cfc:	c6 43 02 00          	movb   $0x0,0x2(%rbx)
  402d00:	44 89 c0             	mov    %r8d,%eax
  402d03:	5b                   	pop    %rbx
  402d04:	c3                   	retq   
  402d05:	48 89 ce             	mov    %rcx,%rsi
  402d08:	48 8d 3d a4 08 00 00 	lea    0x8a4(%rip),%rdi        # 4035b3 <trans_char+0xd3>
  402d0f:	b8 00 00 00 00       	mov    $0x0,%eax
  402d14:	e8 47 df ff ff       	callq  400c60 <printf@plt>
  402d19:	66 c7 03 4f 4b       	movw   $0x4b4f,(%rbx)
  402d1e:	c6 43 02 00          	movb   $0x0,0x2(%rbx)
  402d22:	b8 00 00 00 00       	mov    $0x0,%eax
  402d27:	eb da                	jmp    402d03 <driver_post+0x1f>
  402d29:	48 83 ec 08          	sub    $0x8,%rsp
  402d2d:	41 51                	push   %r9
  402d2f:	49 89 c9             	mov    %rcx,%r9
  402d32:	49 89 d0             	mov    %rdx,%r8
  402d35:	48 89 f9             	mov    %rdi,%rcx
  402d38:	48 89 f2             	mov    %rsi,%rdx
  402d3b:	be a4 3c 00 00       	mov    $0x3ca4,%esi
  402d40:	48 8d 3d 5e 08 00 00 	lea    0x85e(%rip),%rdi        # 4035a5 <trans_char+0xc5>
  402d47:	e8 16 f6 ff ff       	callq  402362 <submitr>
  402d4c:	48 83 c4 10          	add    $0x10,%rsp
  402d50:	eb b1                	jmp    402d03 <driver_post+0x1f>

0000000000402d52 <check>:
  402d52:	89 f8                	mov    %edi,%eax
  402d54:	c1 e8 1c             	shr    $0x1c,%eax
  402d57:	85 c0                	test   %eax,%eax
  402d59:	74 1d                	je     402d78 <check+0x26>
  402d5b:	b9 00 00 00 00       	mov    $0x0,%ecx
  402d60:	83 f9 1f             	cmp    $0x1f,%ecx
  402d63:	7f 0d                	jg     402d72 <check+0x20>
  402d65:	89 f8                	mov    %edi,%eax
  402d67:	d3 e8                	shr    %cl,%eax
  402d69:	3c 0a                	cmp    $0xa,%al
  402d6b:	74 11                	je     402d7e <check+0x2c>
  402d6d:	83 c1 08             	add    $0x8,%ecx
  402d70:	eb ee                	jmp    402d60 <check+0xe>
  402d72:	b8 01 00 00 00       	mov    $0x1,%eax
  402d77:	c3                   	retq   
  402d78:	b8 00 00 00 00       	mov    $0x0,%eax
  402d7d:	c3                   	retq   
  402d7e:	b8 00 00 00 00       	mov    $0x0,%eax
  402d83:	c3                   	retq   

0000000000402d84 <gencookie>:
  402d84:	53                   	push   %rbx
  402d85:	83 c7 01             	add    $0x1,%edi
  402d88:	e8 73 de ff ff       	callq  400c00 <srandom@plt>
  402d8d:	e8 7e df ff ff       	callq  400d10 <random@plt>
  402d92:	89 c3                	mov    %eax,%ebx
  402d94:	89 c7                	mov    %eax,%edi
  402d96:	e8 b7 ff ff ff       	callq  402d52 <check>
  402d9b:	85 c0                	test   %eax,%eax
  402d9d:	74 ee                	je     402d8d <gencookie+0x9>
  402d9f:	89 d8                	mov    %ebx,%eax
  402da1:	5b                   	pop    %rbx
  402da2:	c3                   	retq   
  402da3:	66 2e 0f 1f 84 00 00 	nopw   %cs:0x0(%rax,%rax,1)
  402daa:	00 00 00 
  402dad:	0f 1f 00             	nopl   (%rax)

0000000000402db0 <__libc_csu_init>:
  402db0:	41 57                	push   %r15
  402db2:	41 56                	push   %r14
  402db4:	41 89 ff             	mov    %edi,%r15d
  402db7:	41 55                	push   %r13
  402db9:	41 54                	push   %r12
  402dbb:	4c 8d 25 46 20 20 00 	lea    0x202046(%rip),%r12        # 604e08 <__frame_dummy_init_array_entry>
  402dc2:	55                   	push   %rbp
  402dc3:	48 8d 2d 46 20 20 00 	lea    0x202046(%rip),%rbp        # 604e10 <__init_array_end>
  402dca:	53                   	push   %rbx
  402dcb:	49 89 f6             	mov    %rsi,%r14
  402dce:	49 89 d5             	mov    %rdx,%r13
  402dd1:	4c 29 e5             	sub    %r12,%rbp
  402dd4:	48 83 ec 08          	sub    $0x8,%rsp
  402dd8:	48 c1 fd 03          	sar    $0x3,%rbp
  402ddc:	e8 cf dd ff ff       	callq  400bb0 <_init>
  402de1:	48 85 ed             	test   %rbp,%rbp
  402de4:	74 20                	je     402e06 <__libc_csu_init+0x56>
  402de6:	31 db                	xor    %ebx,%ebx
  402de8:	0f 1f 84 00 00 00 00 	nopl   0x0(%rax,%rax,1)
  402def:	00 
  402df0:	4c 89 ea             	mov    %r13,%rdx
  402df3:	4c 89 f6             	mov    %r14,%rsi
  402df6:	44 89 ff             	mov    %r15d,%edi
  402df9:	41 ff 14 dc          	callq  *(%r12,%rbx,8)
  402dfd:	48 83 c3 01          	add    $0x1,%rbx
  402e01:	48 39 dd             	cmp    %rbx,%rbp
  402e04:	75 ea                	jne    402df0 <__libc_csu_init+0x40>
  402e06:	48 83 c4 08          	add    $0x8,%rsp
  402e0a:	5b                   	pop    %rbx
  402e0b:	5d                   	pop    %rbp
  402e0c:	41 5c                	pop    %r12
  402e0e:	41 5d                	pop    %r13
  402e10:	41 5e                	pop    %r14
  402e12:	41 5f                	pop    %r15
  402e14:	c3                   	retq   
  402e15:	90                   	nop
  402e16:	66 2e 0f 1f 84 00 00 	nopw   %cs:0x0(%rax,%rax,1)
  402e1d:	00 00 00 

0000000000402e20 <__libc_csu_fini>:
  402e20:	f3 c3                	repz retq 

Disassembly of section .fini:

0000000000402e24 <_fini>:
  402e24:	48 83 ec 08          	sub    $0x8,%rsp
  402e28:	48 83 c4 08          	add    $0x8,%rsp
  402e2c:	c3                   	retq   
